
TrainingKit2019.elf:     file format elf32-avr

Sections:
Idx Name          Size      VMA       LMA       File off  Algn
  0 .text         0000366e  00000000  00000000  00000094  2**1
                  CONTENTS, ALLOC, LOAD, READONLY, CODE
  1 .data         00000526  00800060  0000366e  00003702  2**0
                  CONTENTS, ALLOC, LOAD, DATA
  2 .bss          0000006f  00800586  00800586  00003c28  2**0
                  ALLOC

Disassembly of section .text:

00000000 <__vectors>:
       0:	0c 94 57 00 	jmp	0xae	; 0xae <__ctors_end>
       4:	0c 94 74 00 	jmp	0xe8	; 0xe8 <__bad_interrupt>
       8:	0c 94 74 00 	jmp	0xe8	; 0xe8 <__bad_interrupt>
       c:	0c 94 74 00 	jmp	0xe8	; 0xe8 <__bad_interrupt>
      10:	0c 94 74 00 	jmp	0xe8	; 0xe8 <__bad_interrupt>
      14:	0c 94 91 05 	jmp	0xb22	; 0xb22 <__vector_5>
      18:	0c 94 74 00 	jmp	0xe8	; 0xe8 <__bad_interrupt>
      1c:	0c 94 74 00 	jmp	0xe8	; 0xe8 <__bad_interrupt>
      20:	0c 94 74 00 	jmp	0xe8	; 0xe8 <__bad_interrupt>
      24:	0c 94 74 00 	jmp	0xe8	; 0xe8 <__bad_interrupt>
      28:	0c 94 74 00 	jmp	0xe8	; 0xe8 <__bad_interrupt>
      2c:	0c 94 b1 15 	jmp	0x2b62	; 0x2b62 <__vector_11>
      30:	0c 94 74 00 	jmp	0xe8	; 0xe8 <__bad_interrupt>
      34:	0c 94 74 00 	jmp	0xe8	; 0xe8 <__bad_interrupt>
      38:	0c 94 74 00 	jmp	0xe8	; 0xe8 <__bad_interrupt>
      3c:	0c 94 74 00 	jmp	0xe8	; 0xe8 <__bad_interrupt>
      40:	0c 94 74 00 	jmp	0xe8	; 0xe8 <__bad_interrupt>
      44:	0c 94 74 00 	jmp	0xe8	; 0xe8 <__bad_interrupt>
      48:	0c 94 74 00 	jmp	0xe8	; 0xe8 <__bad_interrupt>
      4c:	0c 94 74 00 	jmp	0xe8	; 0xe8 <__bad_interrupt>
      50:	0c 94 74 00 	jmp	0xe8	; 0xe8 <__bad_interrupt>
      54:	08 00       	.word	0x0008	; ????
      56:	00 00       	nop
      58:	be 92       	st	-X, r11
      5a:	24 49       	sbci	r18, 0x94	; 148
      5c:	12 3e       	cpi	r17, 0xE2	; 226
      5e:	ab aa       	std	Y+51, r10	; 0x33
      60:	aa 2a       	or	r10, r26
      62:	be cd       	rjmp	.-1156   	; 0xfffffbe0 <__eeprom_end+0xff7efbe0>
      64:	cc cc       	rjmp	.-1640   	; 0xfffff9fe <__eeprom_end+0xff7ef9fe>
      66:	4c 3e       	cpi	r20, 0xEC	; 236
      68:	00 00       	nop
      6a:	00 80       	ld	r0, Z
      6c:	be ab       	std	Y+54, r27	; 0x36
      6e:	aa aa       	std	Y+50, r10	; 0x32
      70:	aa 3e       	cpi	r26, 0xEA	; 234
      72:	00 00       	nop
      74:	00 00       	nop
      76:	bf 00       	.word	0x00bf	; ????
      78:	00 00       	nop
      7a:	80 3f       	cpi	r24, 0xF0	; 240
      7c:	00 00       	nop
      7e:	00 00       	nop
      80:	00 08       	sbc	r0, r0
      82:	41 78       	andi	r20, 0x81	; 129
      84:	d3 bb       	out	0x13, r29	; 19
      86:	43 87       	std	Z+11, r20	; 0x0b
      88:	d1 13       	cpse	r29, r17
      8a:	3d 19       	sub	r19, r13
      8c:	0e 3c       	cpi	r16, 0xCE	; 206
      8e:	c3 bd       	out	0x23, r28	; 35
      90:	42 82       	std	Z+2, r4	; 0x02
      92:	ad 2b       	or	r26, r29
      94:	3e 68       	ori	r19, 0x8E	; 142
      96:	ec 82       	std	Y+4, r14	; 0x04
      98:	76 be       	out	0x36, r7	; 54
      9a:	d9 8f       	std	Y+25, r29	; 0x19
      9c:	e1 a9       	ldd	r30, Z+49	; 0x31
      9e:	3e 4c       	sbci	r19, 0xCE	; 206
      a0:	80 ef       	ldi	r24, 0xF0	; 240
      a2:	ff be       	out	0x3f, r15	; 63
      a4:	01 c4       	rjmp	.+2050   	; 0x8a8 <EF_void_PWM_init+0x3a>
      a6:	ff 7f       	andi	r31, 0xFF	; 255
      a8:	3f 00       	.word	0x003f	; ????
      aa:	00 00       	nop
	...

000000ae <__ctors_end>:
      ae:	11 24       	eor	r1, r1
      b0:	1f be       	out	0x3f, r1	; 63
      b2:	cf e5       	ldi	r28, 0x5F	; 95
      b4:	d8 e0       	ldi	r29, 0x08	; 8
      b6:	de bf       	out	0x3e, r29	; 62
      b8:	cd bf       	out	0x3d, r28	; 61

000000ba <__do_copy_data>:
      ba:	15 e0       	ldi	r17, 0x05	; 5
      bc:	a0 e6       	ldi	r26, 0x60	; 96
      be:	b0 e0       	ldi	r27, 0x00	; 0
      c0:	ee e6       	ldi	r30, 0x6E	; 110
      c2:	f6 e3       	ldi	r31, 0x36	; 54
      c4:	02 c0       	rjmp	.+4      	; 0xca <.do_copy_data_start>

000000c6 <.do_copy_data_loop>:
      c6:	05 90       	lpm	r0, Z+
      c8:	0d 92       	st	X+, r0

000000ca <.do_copy_data_start>:
      ca:	a6 38       	cpi	r26, 0x86	; 134
      cc:	b1 07       	cpc	r27, r17
      ce:	d9 f7       	brne	.-10     	; 0xc6 <.do_copy_data_loop>

000000d0 <__do_clear_bss>:
      d0:	15 e0       	ldi	r17, 0x05	; 5
      d2:	a6 e8       	ldi	r26, 0x86	; 134
      d4:	b5 e0       	ldi	r27, 0x05	; 5
      d6:	01 c0       	rjmp	.+2      	; 0xda <.do_clear_bss_start>

000000d8 <.do_clear_bss_loop>:
      d8:	1d 92       	st	X+, r1

000000da <.do_clear_bss_start>:
      da:	a5 3f       	cpi	r26, 0xF5	; 245
      dc:	b1 07       	cpc	r27, r17
      de:	e1 f7       	brne	.-8      	; 0xd8 <.do_clear_bss_loop>
      e0:	0e 94 14 18 	call	0x3028	; 0x3028 <main>
      e4:	0c 94 35 1b 	jmp	0x366a	; 0x366a <_exit>

000000e8 <__bad_interrupt>:
      e8:	0c 94 00 00 	jmp	0	; 0x0 <__vectors>

000000ec <EF_void_ADC_init>:
      ec:	68 2f       	mov	r22, r24
      ee:	81 e6       	ldi	r24, 0x61	; 97
      f0:	40 e0       	ldi	r20, 0x00	; 0
      f2:	0e 94 0a 01 	call	0x214	; 0x214 <EF_B_DIO_InitPin>
      f6:	86 b1       	in	r24, 0x06	; 6
      f8:	87 60       	ori	r24, 0x07	; 7
      fa:	86 b9       	out	0x06, r24	; 6
      fc:	37 9a       	sbi	0x06, 7	; 6
      fe:	08 95       	ret

00000100 <EF_u16_ADC_read>:
     100:	1f 93       	push	r17
     102:	18 2f       	mov	r17, r24
     104:	0e 94 76 00 	call	0xec	; 0xec <EF_void_ADC_init>
     108:	17 b9       	out	0x07, r17	; 7
     10a:	87 b1       	in	r24, 0x07	; 7
     10c:	80 6c       	ori	r24, 0xC0	; 192
     10e:	87 b9       	out	0x07, r24	; 7
     110:	3d 98       	cbi	0x07, 5	; 7
     112:	36 9a       	sbi	0x06, 6	; 6
     114:	34 9b       	sbis	0x06, 4	; 6
     116:	fe cf       	rjmp	.-4      	; 0x114 <EF_u16_ADC_read+0x14>
     118:	34 9a       	sbi	0x06, 4	; 6
     11a:	24 b1       	in	r18, 0x04	; 4
     11c:	35 b1       	in	r19, 0x05	; 5
     11e:	c9 01       	movw	r24, r18
     120:	1f 91       	pop	r17
     122:	08 95       	ret

00000124 <EF_S8_DIO_InitPort>:
     124:	84 34       	cpi	r24, 0x44	; 68
     126:	e9 f0       	breq	.+58     	; 0x162 <EF_S8_DIO_InitPort+0x3e>
     128:	85 34       	cpi	r24, 0x45	; 69
     12a:	38 f4       	brcc	.+14     	; 0x13a <EF_S8_DIO_InitPort+0x16>
     12c:	82 34       	cpi	r24, 0x42	; 66
     12e:	a1 f0       	breq	.+40     	; 0x158 <EF_S8_DIO_InitPort+0x34>
     130:	83 34       	cpi	r24, 0x43	; 67
     132:	a0 f4       	brcc	.+40     	; 0x15c <EF_S8_DIO_InitPort+0x38>
     134:	81 34       	cpi	r24, 0x41	; 65
     136:	61 f4       	brne	.+24     	; 0x150 <EF_S8_DIO_InitPort+0x2c>
     138:	0d c0       	rjmp	.+26     	; 0x154 <EF_S8_DIO_InitPort+0x30>
     13a:	82 36       	cpi	r24, 0x62	; 98
     13c:	69 f0       	breq	.+26     	; 0x158 <EF_S8_DIO_InitPort+0x34>
     13e:	83 36       	cpi	r24, 0x63	; 99
     140:	18 f4       	brcc	.+6      	; 0x148 <EF_S8_DIO_InitPort+0x24>
     142:	81 36       	cpi	r24, 0x61	; 97
     144:	29 f4       	brne	.+10     	; 0x150 <EF_S8_DIO_InitPort+0x2c>
     146:	06 c0       	rjmp	.+12     	; 0x154 <EF_S8_DIO_InitPort+0x30>
     148:	83 36       	cpi	r24, 0x63	; 99
     14a:	41 f0       	breq	.+16     	; 0x15c <EF_S8_DIO_InitPort+0x38>
     14c:	84 36       	cpi	r24, 0x64	; 100
     14e:	49 f0       	breq	.+18     	; 0x162 <EF_S8_DIO_InitPort+0x3e>
     150:	8f ef       	ldi	r24, 0xFF	; 255
     152:	08 95       	ret
     154:	6a bb       	out	0x1a, r22	; 26
     156:	03 c0       	rjmp	.+6      	; 0x15e <EF_S8_DIO_InitPort+0x3a>
     158:	67 bb       	out	0x17, r22	; 23
     15a:	01 c0       	rjmp	.+2      	; 0x15e <EF_S8_DIO_InitPort+0x3a>
     15c:	64 bb       	out	0x14, r22	; 20
     15e:	81 e0       	ldi	r24, 0x01	; 1
     160:	08 95       	ret
     162:	61 bb       	out	0x11, r22	; 17
     164:	81 e0       	ldi	r24, 0x01	; 1
     166:	08 95       	ret

00000168 <EF_S8_DIO_WritePort>:
     168:	84 34       	cpi	r24, 0x44	; 68
     16a:	19 f1       	breq	.+70     	; 0x1b2 <EF_S8_DIO_WritePort+0x4a>
     16c:	85 34       	cpi	r24, 0x45	; 69
     16e:	38 f4       	brcc	.+14     	; 0x17e <EF_S8_DIO_WritePort+0x16>
     170:	82 34       	cpi	r24, 0x42	; 66
     172:	b1 f0       	breq	.+44     	; 0x1a0 <EF_S8_DIO_WritePort+0x38>
     174:	83 34       	cpi	r24, 0x43	; 67
     176:	c0 f4       	brcc	.+48     	; 0x1a8 <EF_S8_DIO_WritePort+0x40>
     178:	81 34       	cpi	r24, 0x41	; 65
     17a:	61 f4       	brne	.+24     	; 0x194 <EF_S8_DIO_WritePort+0x2c>
     17c:	0d c0       	rjmp	.+26     	; 0x198 <EF_S8_DIO_WritePort+0x30>
     17e:	82 36       	cpi	r24, 0x62	; 98
     180:	79 f0       	breq	.+30     	; 0x1a0 <EF_S8_DIO_WritePort+0x38>
     182:	83 36       	cpi	r24, 0x63	; 99
     184:	18 f4       	brcc	.+6      	; 0x18c <EF_S8_DIO_WritePort+0x24>
     186:	81 36       	cpi	r24, 0x61	; 97
     188:	29 f4       	brne	.+10     	; 0x194 <EF_S8_DIO_WritePort+0x2c>
     18a:	06 c0       	rjmp	.+12     	; 0x198 <EF_S8_DIO_WritePort+0x30>
     18c:	83 36       	cpi	r24, 0x63	; 99
     18e:	61 f0       	breq	.+24     	; 0x1a8 <EF_S8_DIO_WritePort+0x40>
     190:	84 36       	cpi	r24, 0x64	; 100
     192:	79 f0       	breq	.+30     	; 0x1b2 <EF_S8_DIO_WritePort+0x4a>
     194:	8f ef       	ldi	r24, 0xFF	; 255
     196:	08 95       	ret
     198:	8b b3       	in	r24, 0x1b	; 27
     19a:	86 2b       	or	r24, r22
     19c:	8b bb       	out	0x1b, r24	; 27
     19e:	07 c0       	rjmp	.+14     	; 0x1ae <EF_S8_DIO_WritePort+0x46>
     1a0:	88 b3       	in	r24, 0x18	; 24
     1a2:	86 2b       	or	r24, r22
     1a4:	88 bb       	out	0x18, r24	; 24
     1a6:	03 c0       	rjmp	.+6      	; 0x1ae <EF_S8_DIO_WritePort+0x46>
     1a8:	85 b3       	in	r24, 0x15	; 21
     1aa:	86 2b       	or	r24, r22
     1ac:	85 bb       	out	0x15, r24	; 21
     1ae:	81 e0       	ldi	r24, 0x01	; 1
     1b0:	08 95       	ret
     1b2:	82 b3       	in	r24, 0x12	; 18
     1b4:	86 2b       	or	r24, r22
     1b6:	82 bb       	out	0x12, r24	; 18
     1b8:	81 e0       	ldi	r24, 0x01	; 1
     1ba:	08 95       	ret

000001bc <EF_S16_DIO_ReadPort>:
     1bc:	df 93       	push	r29
     1be:	cf 93       	push	r28
     1c0:	0f 92       	push	r0
     1c2:	cd b7       	in	r28, 0x3d	; 61
     1c4:	de b7       	in	r29, 0x3e	; 62
     1c6:	84 34       	cpi	r24, 0x44	; 68
     1c8:	d9 f0       	breq	.+54     	; 0x200 <EF_S16_DIO_ReadPort+0x44>
     1ca:	85 34       	cpi	r24, 0x45	; 69
     1cc:	38 f4       	brcc	.+14     	; 0x1dc <EF_S16_DIO_ReadPort+0x20>
     1ce:	82 34       	cpi	r24, 0x42	; 66
     1d0:	99 f0       	breq	.+38     	; 0x1f8 <EF_S16_DIO_ReadPort+0x3c>
     1d2:	83 34       	cpi	r24, 0x43	; 67
     1d4:	98 f4       	brcc	.+38     	; 0x1fc <EF_S16_DIO_ReadPort+0x40>
     1d6:	81 34       	cpi	r24, 0x41	; 65
     1d8:	a9 f4       	brne	.+42     	; 0x204 <EF_S16_DIO_ReadPort+0x48>
     1da:	0c c0       	rjmp	.+24     	; 0x1f4 <EF_S16_DIO_ReadPort+0x38>
     1dc:	82 36       	cpi	r24, 0x62	; 98
     1de:	61 f0       	breq	.+24     	; 0x1f8 <EF_S16_DIO_ReadPort+0x3c>
     1e0:	83 36       	cpi	r24, 0x63	; 99
     1e2:	18 f4       	brcc	.+6      	; 0x1ea <EF_S16_DIO_ReadPort+0x2e>
     1e4:	81 36       	cpi	r24, 0x61	; 97
     1e6:	71 f4       	brne	.+28     	; 0x204 <EF_S16_DIO_ReadPort+0x48>
     1e8:	05 c0       	rjmp	.+10     	; 0x1f4 <EF_S16_DIO_ReadPort+0x38>
     1ea:	83 36       	cpi	r24, 0x63	; 99
     1ec:	39 f0       	breq	.+14     	; 0x1fc <EF_S16_DIO_ReadPort+0x40>
     1ee:	84 36       	cpi	r24, 0x64	; 100
     1f0:	49 f4       	brne	.+18     	; 0x204 <EF_S16_DIO_ReadPort+0x48>
     1f2:	06 c0       	rjmp	.+12     	; 0x200 <EF_S16_DIO_ReadPort+0x44>
     1f4:	89 b3       	in	r24, 0x19	; 25
     1f6:	07 c0       	rjmp	.+14     	; 0x206 <EF_S16_DIO_ReadPort+0x4a>
     1f8:	86 b3       	in	r24, 0x16	; 22
     1fa:	05 c0       	rjmp	.+10     	; 0x206 <EF_S16_DIO_ReadPort+0x4a>
     1fc:	83 b3       	in	r24, 0x13	; 19
     1fe:	03 c0       	rjmp	.+6      	; 0x206 <EF_S16_DIO_ReadPort+0x4a>
     200:	80 b3       	in	r24, 0x10	; 16
     202:	01 c0       	rjmp	.+2      	; 0x206 <EF_S16_DIO_ReadPort+0x4a>
     204:	8f ef       	ldi	r24, 0xFF	; 255
     206:	89 83       	std	Y+1, r24	; 0x01
     208:	89 81       	ldd	r24, Y+1	; 0x01
     20a:	90 e0       	ldi	r25, 0x00	; 0
     20c:	0f 90       	pop	r0
     20e:	cf 91       	pop	r28
     210:	df 91       	pop	r29
     212:	08 95       	ret

00000214 <EF_B_DIO_InitPin>:
     214:	84 34       	cpi	r24, 0x44	; 68
     216:	09 f4       	brne	.+2      	; 0x21a <EF_B_DIO_InitPin+0x6>
     218:	6f c0       	rjmp	.+222    	; 0x2f8 <EF_B_DIO_InitPin+0xe4>
     21a:	85 34       	cpi	r24, 0x45	; 69
     21c:	40 f4       	brcc	.+16     	; 0x22e <EF_B_DIO_InitPin+0x1a>
     21e:	82 34       	cpi	r24, 0x42	; 66
     220:	91 f1       	breq	.+100    	; 0x286 <EF_B_DIO_InitPin+0x72>
     222:	83 34       	cpi	r24, 0x43	; 67
     224:	08 f0       	brcs	.+2      	; 0x228 <EF_B_DIO_InitPin+0x14>
     226:	4c c0       	rjmp	.+152    	; 0x2c0 <EF_B_DIO_InitPin+0xac>
     228:	81 34       	cpi	r24, 0x41	; 65
     22a:	71 f4       	brne	.+28     	; 0x248 <EF_B_DIO_InitPin+0x34>
     22c:	0f c0       	rjmp	.+30     	; 0x24c <EF_B_DIO_InitPin+0x38>
     22e:	82 36       	cpi	r24, 0x62	; 98
     230:	51 f1       	breq	.+84     	; 0x286 <EF_B_DIO_InitPin+0x72>
     232:	83 36       	cpi	r24, 0x63	; 99
     234:	18 f4       	brcc	.+6      	; 0x23c <EF_B_DIO_InitPin+0x28>
     236:	81 36       	cpi	r24, 0x61	; 97
     238:	39 f4       	brne	.+14     	; 0x248 <EF_B_DIO_InitPin+0x34>
     23a:	08 c0       	rjmp	.+16     	; 0x24c <EF_B_DIO_InitPin+0x38>
     23c:	83 36       	cpi	r24, 0x63	; 99
     23e:	09 f4       	brne	.+2      	; 0x242 <EF_B_DIO_InitPin+0x2e>
     240:	3f c0       	rjmp	.+126    	; 0x2c0 <EF_B_DIO_InitPin+0xac>
     242:	84 36       	cpi	r24, 0x64	; 100
     244:	09 f4       	brne	.+2      	; 0x248 <EF_B_DIO_InitPin+0x34>
     246:	58 c0       	rjmp	.+176    	; 0x2f8 <EF_B_DIO_InitPin+0xe4>
     248:	8f ef       	ldi	r24, 0xFF	; 255
     24a:	08 95       	ret
     24c:	44 23       	and	r20, r20
     24e:	21 f0       	breq	.+8      	; 0x258 <EF_B_DIO_InitPin+0x44>
     250:	41 30       	cpi	r20, 0x01	; 1
     252:	09 f0       	breq	.+2      	; 0x256 <EF_B_DIO_InitPin+0x42>
     254:	6e c0       	rjmp	.+220    	; 0x332 <EF_B_DIO_InitPin+0x11e>
     256:	0c c0       	rjmp	.+24     	; 0x270 <EF_B_DIO_InitPin+0x5c>
     258:	2a b3       	in	r18, 0x1a	; 26
     25a:	81 e0       	ldi	r24, 0x01	; 1
     25c:	90 e0       	ldi	r25, 0x00	; 0
     25e:	02 c0       	rjmp	.+4      	; 0x264 <EF_B_DIO_InitPin+0x50>
     260:	88 0f       	add	r24, r24
     262:	99 1f       	adc	r25, r25
     264:	6a 95       	dec	r22
     266:	e2 f7       	brpl	.-8      	; 0x260 <EF_B_DIO_InitPin+0x4c>
     268:	80 95       	com	r24
     26a:	82 23       	and	r24, r18
     26c:	8a bb       	out	0x1a, r24	; 26
     26e:	5f c0       	rjmp	.+190    	; 0x32e <EF_B_DIO_InitPin+0x11a>
     270:	2a b3       	in	r18, 0x1a	; 26
     272:	81 e0       	ldi	r24, 0x01	; 1
     274:	90 e0       	ldi	r25, 0x00	; 0
     276:	02 c0       	rjmp	.+4      	; 0x27c <EF_B_DIO_InitPin+0x68>
     278:	88 0f       	add	r24, r24
     27a:	99 1f       	adc	r25, r25
     27c:	6a 95       	dec	r22
     27e:	e2 f7       	brpl	.-8      	; 0x278 <EF_B_DIO_InitPin+0x64>
     280:	28 2b       	or	r18, r24
     282:	2a bb       	out	0x1a, r18	; 26
     284:	54 c0       	rjmp	.+168    	; 0x32e <EF_B_DIO_InitPin+0x11a>
     286:	44 23       	and	r20, r20
     288:	21 f0       	breq	.+8      	; 0x292 <EF_B_DIO_InitPin+0x7e>
     28a:	41 30       	cpi	r20, 0x01	; 1
     28c:	09 f0       	breq	.+2      	; 0x290 <EF_B_DIO_InitPin+0x7c>
     28e:	51 c0       	rjmp	.+162    	; 0x332 <EF_B_DIO_InitPin+0x11e>
     290:	0c c0       	rjmp	.+24     	; 0x2aa <EF_B_DIO_InitPin+0x96>
     292:	27 b3       	in	r18, 0x17	; 23
     294:	81 e0       	ldi	r24, 0x01	; 1
     296:	90 e0       	ldi	r25, 0x00	; 0
     298:	02 c0       	rjmp	.+4      	; 0x29e <EF_B_DIO_InitPin+0x8a>
     29a:	88 0f       	add	r24, r24
     29c:	99 1f       	adc	r25, r25
     29e:	6a 95       	dec	r22
     2a0:	e2 f7       	brpl	.-8      	; 0x29a <EF_B_DIO_InitPin+0x86>
     2a2:	80 95       	com	r24
     2a4:	82 23       	and	r24, r18
     2a6:	87 bb       	out	0x17, r24	; 23
     2a8:	42 c0       	rjmp	.+132    	; 0x32e <EF_B_DIO_InitPin+0x11a>
     2aa:	27 b3       	in	r18, 0x17	; 23
     2ac:	81 e0       	ldi	r24, 0x01	; 1
     2ae:	90 e0       	ldi	r25, 0x00	; 0
     2b0:	02 c0       	rjmp	.+4      	; 0x2b6 <EF_B_DIO_InitPin+0xa2>
     2b2:	88 0f       	add	r24, r24
     2b4:	99 1f       	adc	r25, r25
     2b6:	6a 95       	dec	r22
     2b8:	e2 f7       	brpl	.-8      	; 0x2b2 <EF_B_DIO_InitPin+0x9e>
     2ba:	28 2b       	or	r18, r24
     2bc:	27 bb       	out	0x17, r18	; 23
     2be:	37 c0       	rjmp	.+110    	; 0x32e <EF_B_DIO_InitPin+0x11a>
     2c0:	44 23       	and	r20, r20
     2c2:	19 f0       	breq	.+6      	; 0x2ca <EF_B_DIO_InitPin+0xb6>
     2c4:	41 30       	cpi	r20, 0x01	; 1
     2c6:	a9 f5       	brne	.+106    	; 0x332 <EF_B_DIO_InitPin+0x11e>
     2c8:	0c c0       	rjmp	.+24     	; 0x2e2 <EF_B_DIO_InitPin+0xce>
     2ca:	24 b3       	in	r18, 0x14	; 20
     2cc:	81 e0       	ldi	r24, 0x01	; 1
     2ce:	90 e0       	ldi	r25, 0x00	; 0
     2d0:	02 c0       	rjmp	.+4      	; 0x2d6 <EF_B_DIO_InitPin+0xc2>
     2d2:	88 0f       	add	r24, r24
     2d4:	99 1f       	adc	r25, r25
     2d6:	6a 95       	dec	r22
     2d8:	e2 f7       	brpl	.-8      	; 0x2d2 <EF_B_DIO_InitPin+0xbe>
     2da:	80 95       	com	r24
     2dc:	82 23       	and	r24, r18
     2de:	84 bb       	out	0x14, r24	; 20
     2e0:	26 c0       	rjmp	.+76     	; 0x32e <EF_B_DIO_InitPin+0x11a>
     2e2:	24 b3       	in	r18, 0x14	; 20
     2e4:	81 e0       	ldi	r24, 0x01	; 1
     2e6:	90 e0       	ldi	r25, 0x00	; 0
     2e8:	02 c0       	rjmp	.+4      	; 0x2ee <EF_B_DIO_InitPin+0xda>
     2ea:	88 0f       	add	r24, r24
     2ec:	99 1f       	adc	r25, r25
     2ee:	6a 95       	dec	r22
     2f0:	e2 f7       	brpl	.-8      	; 0x2ea <EF_B_DIO_InitPin+0xd6>
     2f2:	28 2b       	or	r18, r24
     2f4:	24 bb       	out	0x14, r18	; 20
     2f6:	1b c0       	rjmp	.+54     	; 0x32e <EF_B_DIO_InitPin+0x11a>
     2f8:	44 23       	and	r20, r20
     2fa:	19 f0       	breq	.+6      	; 0x302 <EF_B_DIO_InitPin+0xee>
     2fc:	41 30       	cpi	r20, 0x01	; 1
     2fe:	c9 f4       	brne	.+50     	; 0x332 <EF_B_DIO_InitPin+0x11e>
     300:	0c c0       	rjmp	.+24     	; 0x31a <EF_B_DIO_InitPin+0x106>
     302:	21 b3       	in	r18, 0x11	; 17
     304:	81 e0       	ldi	r24, 0x01	; 1
     306:	90 e0       	ldi	r25, 0x00	; 0
     308:	02 c0       	rjmp	.+4      	; 0x30e <EF_B_DIO_InitPin+0xfa>
     30a:	88 0f       	add	r24, r24
     30c:	99 1f       	adc	r25, r25
     30e:	6a 95       	dec	r22
     310:	e2 f7       	brpl	.-8      	; 0x30a <EF_B_DIO_InitPin+0xf6>
     312:	80 95       	com	r24
     314:	82 23       	and	r24, r18
     316:	81 bb       	out	0x11, r24	; 17
     318:	0a c0       	rjmp	.+20     	; 0x32e <EF_B_DIO_InitPin+0x11a>
     31a:	21 b3       	in	r18, 0x11	; 17
     31c:	81 e0       	ldi	r24, 0x01	; 1
     31e:	90 e0       	ldi	r25, 0x00	; 0
     320:	02 c0       	rjmp	.+4      	; 0x326 <EF_B_DIO_InitPin+0x112>
     322:	88 0f       	add	r24, r24
     324:	99 1f       	adc	r25, r25
     326:	6a 95       	dec	r22
     328:	e2 f7       	brpl	.-8      	; 0x322 <EF_B_DIO_InitPin+0x10e>
     32a:	28 2b       	or	r18, r24
     32c:	21 bb       	out	0x11, r18	; 17
     32e:	81 e0       	ldi	r24, 0x01	; 1
     330:	08 95       	ret
     332:	81 e0       	ldi	r24, 0x01	; 1
     334:	08 95       	ret

00000336 <EF_S8_DIO_SetPin>:
     336:	68 30       	cpi	r22, 0x08	; 8
     338:	08 f0       	brcs	.+2      	; 0x33c <EF_S8_DIO_SetPin+0x6>
     33a:	44 c0       	rjmp	.+136    	; 0x3c4 <EF_S8_DIO_SetPin+0x8e>
     33c:	84 34       	cpi	r24, 0x44	; 68
     33e:	b1 f1       	breq	.+108    	; 0x3ac <EF_S8_DIO_SetPin+0x76>
     340:	85 34       	cpi	r24, 0x45	; 69
     342:	38 f4       	brcc	.+14     	; 0x352 <EF_S8_DIO_SetPin+0x1c>
     344:	82 34       	cpi	r24, 0x42	; 66
     346:	e1 f0       	breq	.+56     	; 0x380 <EF_S8_DIO_SetPin+0x4a>
     348:	83 34       	cpi	r24, 0x43	; 67
     34a:	28 f5       	brcc	.+74     	; 0x396 <EF_S8_DIO_SetPin+0x60>
     34c:	81 34       	cpi	r24, 0x41	; 65
     34e:	d1 f5       	brne	.+116    	; 0x3c4 <EF_S8_DIO_SetPin+0x8e>
     350:	0c c0       	rjmp	.+24     	; 0x36a <EF_S8_DIO_SetPin+0x34>
     352:	82 36       	cpi	r24, 0x62	; 98
     354:	a9 f0       	breq	.+42     	; 0x380 <EF_S8_DIO_SetPin+0x4a>
     356:	83 36       	cpi	r24, 0x63	; 99
     358:	18 f4       	brcc	.+6      	; 0x360 <EF_S8_DIO_SetPin+0x2a>
     35a:	81 36       	cpi	r24, 0x61	; 97
     35c:	99 f5       	brne	.+102    	; 0x3c4 <EF_S8_DIO_SetPin+0x8e>
     35e:	05 c0       	rjmp	.+10     	; 0x36a <EF_S8_DIO_SetPin+0x34>
     360:	83 36       	cpi	r24, 0x63	; 99
     362:	c9 f0       	breq	.+50     	; 0x396 <EF_S8_DIO_SetPin+0x60>
     364:	84 36       	cpi	r24, 0x64	; 100
     366:	71 f5       	brne	.+92     	; 0x3c4 <EF_S8_DIO_SetPin+0x8e>
     368:	21 c0       	rjmp	.+66     	; 0x3ac <EF_S8_DIO_SetPin+0x76>
     36a:	2b b3       	in	r18, 0x1b	; 27
     36c:	81 e0       	ldi	r24, 0x01	; 1
     36e:	90 e0       	ldi	r25, 0x00	; 0
     370:	02 c0       	rjmp	.+4      	; 0x376 <EF_S8_DIO_SetPin+0x40>
     372:	88 0f       	add	r24, r24
     374:	99 1f       	adc	r25, r25
     376:	6a 95       	dec	r22
     378:	e2 f7       	brpl	.-8      	; 0x372 <EF_S8_DIO_SetPin+0x3c>
     37a:	28 2b       	or	r18, r24
     37c:	2b bb       	out	0x1b, r18	; 27
     37e:	20 c0       	rjmp	.+64     	; 0x3c0 <EF_S8_DIO_SetPin+0x8a>
     380:	28 b3       	in	r18, 0x18	; 24
     382:	81 e0       	ldi	r24, 0x01	; 1
     384:	90 e0       	ldi	r25, 0x00	; 0
     386:	02 c0       	rjmp	.+4      	; 0x38c <EF_S8_DIO_SetPin+0x56>
     388:	88 0f       	add	r24, r24
     38a:	99 1f       	adc	r25, r25
     38c:	6a 95       	dec	r22
     38e:	e2 f7       	brpl	.-8      	; 0x388 <EF_S8_DIO_SetPin+0x52>
     390:	28 2b       	or	r18, r24
     392:	28 bb       	out	0x18, r18	; 24
     394:	15 c0       	rjmp	.+42     	; 0x3c0 <EF_S8_DIO_SetPin+0x8a>
     396:	25 b3       	in	r18, 0x15	; 21
     398:	81 e0       	ldi	r24, 0x01	; 1
     39a:	90 e0       	ldi	r25, 0x00	; 0
     39c:	02 c0       	rjmp	.+4      	; 0x3a2 <EF_S8_DIO_SetPin+0x6c>
     39e:	88 0f       	add	r24, r24
     3a0:	99 1f       	adc	r25, r25
     3a2:	6a 95       	dec	r22
     3a4:	e2 f7       	brpl	.-8      	; 0x39e <EF_S8_DIO_SetPin+0x68>
     3a6:	28 2b       	or	r18, r24
     3a8:	25 bb       	out	0x15, r18	; 21
     3aa:	0a c0       	rjmp	.+20     	; 0x3c0 <EF_S8_DIO_SetPin+0x8a>
     3ac:	22 b3       	in	r18, 0x12	; 18
     3ae:	81 e0       	ldi	r24, 0x01	; 1
     3b0:	90 e0       	ldi	r25, 0x00	; 0
     3b2:	02 c0       	rjmp	.+4      	; 0x3b8 <EF_S8_DIO_SetPin+0x82>
     3b4:	88 0f       	add	r24, r24
     3b6:	99 1f       	adc	r25, r25
     3b8:	6a 95       	dec	r22
     3ba:	e2 f7       	brpl	.-8      	; 0x3b4 <EF_S8_DIO_SetPin+0x7e>
     3bc:	28 2b       	or	r18, r24
     3be:	22 bb       	out	0x12, r18	; 18
     3c0:	81 e0       	ldi	r24, 0x01	; 1
     3c2:	08 95       	ret
     3c4:	8f ef       	ldi	r24, 0xFF	; 255
     3c6:	08 95       	ret

000003c8 <EF_S8_DIO_ClearPin>:
     3c8:	68 30       	cpi	r22, 0x08	; 8
     3ca:	08 f0       	brcs	.+2      	; 0x3ce <EF_S8_DIO_ClearPin+0x6>
     3cc:	49 c0       	rjmp	.+146    	; 0x460 <EF_S8_DIO_ClearPin+0x98>
     3ce:	84 34       	cpi	r24, 0x44	; 68
     3d0:	d1 f1       	breq	.+116    	; 0x446 <EF_S8_DIO_ClearPin+0x7e>
     3d2:	85 34       	cpi	r24, 0x45	; 69
     3d4:	40 f4       	brcc	.+16     	; 0x3e6 <EF_S8_DIO_ClearPin+0x1e>
     3d6:	82 34       	cpi	r24, 0x42	; 66
     3d8:	f1 f0       	breq	.+60     	; 0x416 <EF_S8_DIO_ClearPin+0x4e>
     3da:	83 34       	cpi	r24, 0x43	; 67
     3dc:	40 f5       	brcc	.+80     	; 0x42e <EF_S8_DIO_ClearPin+0x66>
     3de:	81 34       	cpi	r24, 0x41	; 65
     3e0:	09 f0       	breq	.+2      	; 0x3e4 <EF_S8_DIO_ClearPin+0x1c>
     3e2:	3e c0       	rjmp	.+124    	; 0x460 <EF_S8_DIO_ClearPin+0x98>
     3e4:	0c c0       	rjmp	.+24     	; 0x3fe <EF_S8_DIO_ClearPin+0x36>
     3e6:	82 36       	cpi	r24, 0x62	; 98
     3e8:	b1 f0       	breq	.+44     	; 0x416 <EF_S8_DIO_ClearPin+0x4e>
     3ea:	83 36       	cpi	r24, 0x63	; 99
     3ec:	18 f4       	brcc	.+6      	; 0x3f4 <EF_S8_DIO_ClearPin+0x2c>
     3ee:	81 36       	cpi	r24, 0x61	; 97
     3f0:	b9 f5       	brne	.+110    	; 0x460 <EF_S8_DIO_ClearPin+0x98>
     3f2:	05 c0       	rjmp	.+10     	; 0x3fe <EF_S8_DIO_ClearPin+0x36>
     3f4:	83 36       	cpi	r24, 0x63	; 99
     3f6:	d9 f0       	breq	.+54     	; 0x42e <EF_S8_DIO_ClearPin+0x66>
     3f8:	84 36       	cpi	r24, 0x64	; 100
     3fa:	91 f5       	brne	.+100    	; 0x460 <EF_S8_DIO_ClearPin+0x98>
     3fc:	24 c0       	rjmp	.+72     	; 0x446 <EF_S8_DIO_ClearPin+0x7e>
     3fe:	2b b3       	in	r18, 0x1b	; 27
     400:	81 e0       	ldi	r24, 0x01	; 1
     402:	90 e0       	ldi	r25, 0x00	; 0
     404:	02 c0       	rjmp	.+4      	; 0x40a <EF_S8_DIO_ClearPin+0x42>
     406:	88 0f       	add	r24, r24
     408:	99 1f       	adc	r25, r25
     40a:	6a 95       	dec	r22
     40c:	e2 f7       	brpl	.-8      	; 0x406 <EF_S8_DIO_ClearPin+0x3e>
     40e:	80 95       	com	r24
     410:	82 23       	and	r24, r18
     412:	8b bb       	out	0x1b, r24	; 27
     414:	23 c0       	rjmp	.+70     	; 0x45c <EF_S8_DIO_ClearPin+0x94>
     416:	28 b3       	in	r18, 0x18	; 24
     418:	81 e0       	ldi	r24, 0x01	; 1
     41a:	90 e0       	ldi	r25, 0x00	; 0
     41c:	02 c0       	rjmp	.+4      	; 0x422 <EF_S8_DIO_ClearPin+0x5a>
     41e:	88 0f       	add	r24, r24
     420:	99 1f       	adc	r25, r25
     422:	6a 95       	dec	r22
     424:	e2 f7       	brpl	.-8      	; 0x41e <EF_S8_DIO_ClearPin+0x56>
     426:	80 95       	com	r24
     428:	82 23       	and	r24, r18
     42a:	88 bb       	out	0x18, r24	; 24
     42c:	17 c0       	rjmp	.+46     	; 0x45c <EF_S8_DIO_ClearPin+0x94>
     42e:	25 b3       	in	r18, 0x15	; 21
     430:	81 e0       	ldi	r24, 0x01	; 1
     432:	90 e0       	ldi	r25, 0x00	; 0
     434:	02 c0       	rjmp	.+4      	; 0x43a <EF_S8_DIO_ClearPin+0x72>
     436:	88 0f       	add	r24, r24
     438:	99 1f       	adc	r25, r25
     43a:	6a 95       	dec	r22
     43c:	e2 f7       	brpl	.-8      	; 0x436 <EF_S8_DIO_ClearPin+0x6e>
     43e:	80 95       	com	r24
     440:	82 23       	and	r24, r18
     442:	85 bb       	out	0x15, r24	; 21
     444:	0b c0       	rjmp	.+22     	; 0x45c <EF_S8_DIO_ClearPin+0x94>
     446:	22 b3       	in	r18, 0x12	; 18
     448:	81 e0       	ldi	r24, 0x01	; 1
     44a:	90 e0       	ldi	r25, 0x00	; 0
     44c:	02 c0       	rjmp	.+4      	; 0x452 <EF_S8_DIO_ClearPin+0x8a>
     44e:	88 0f       	add	r24, r24
     450:	99 1f       	adc	r25, r25
     452:	6a 95       	dec	r22
     454:	e2 f7       	brpl	.-8      	; 0x44e <EF_S8_DIO_ClearPin+0x86>
     456:	80 95       	com	r24
     458:	82 23       	and	r24, r18
     45a:	82 bb       	out	0x12, r24	; 18
     45c:	81 e0       	ldi	r24, 0x01	; 1
     45e:	08 95       	ret
     460:	8f ef       	ldi	r24, 0xFF	; 255
     462:	08 95       	ret

00000464 <EF_S8_DIO_SetPort>:
     464:	84 34       	cpi	r24, 0x44	; 68
     466:	01 f1       	breq	.+64     	; 0x4a8 <EF_S8_DIO_SetPort+0x44>
     468:	85 34       	cpi	r24, 0x45	; 69
     46a:	38 f4       	brcc	.+14     	; 0x47a <EF_S8_DIO_SetPort+0x16>
     46c:	82 34       	cpi	r24, 0x42	; 66
     46e:	a9 f0       	breq	.+42     	; 0x49a <EF_S8_DIO_SetPort+0x36>
     470:	83 34       	cpi	r24, 0x43	; 67
     472:	b0 f4       	brcc	.+44     	; 0x4a0 <EF_S8_DIO_SetPort+0x3c>
     474:	81 34       	cpi	r24, 0x41	; 65
     476:	61 f4       	brne	.+24     	; 0x490 <EF_S8_DIO_SetPort+0x2c>
     478:	0d c0       	rjmp	.+26     	; 0x494 <EF_S8_DIO_SetPort+0x30>
     47a:	82 36       	cpi	r24, 0x62	; 98
     47c:	71 f0       	breq	.+28     	; 0x49a <EF_S8_DIO_SetPort+0x36>
     47e:	83 36       	cpi	r24, 0x63	; 99
     480:	18 f4       	brcc	.+6      	; 0x488 <EF_S8_DIO_SetPort+0x24>
     482:	81 36       	cpi	r24, 0x61	; 97
     484:	29 f4       	brne	.+10     	; 0x490 <EF_S8_DIO_SetPort+0x2c>
     486:	06 c0       	rjmp	.+12     	; 0x494 <EF_S8_DIO_SetPort+0x30>
     488:	83 36       	cpi	r24, 0x63	; 99
     48a:	51 f0       	breq	.+20     	; 0x4a0 <EF_S8_DIO_SetPort+0x3c>
     48c:	84 36       	cpi	r24, 0x64	; 100
     48e:	61 f0       	breq	.+24     	; 0x4a8 <EF_S8_DIO_SetPort+0x44>
     490:	8f ef       	ldi	r24, 0xFF	; 255
     492:	08 95       	ret
     494:	8f ef       	ldi	r24, 0xFF	; 255
     496:	8b bb       	out	0x1b, r24	; 27
     498:	05 c0       	rjmp	.+10     	; 0x4a4 <EF_S8_DIO_SetPort+0x40>
     49a:	8f ef       	ldi	r24, 0xFF	; 255
     49c:	88 bb       	out	0x18, r24	; 24
     49e:	02 c0       	rjmp	.+4      	; 0x4a4 <EF_S8_DIO_SetPort+0x40>
     4a0:	8f ef       	ldi	r24, 0xFF	; 255
     4a2:	85 bb       	out	0x15, r24	; 21
     4a4:	81 e0       	ldi	r24, 0x01	; 1
     4a6:	08 95       	ret
     4a8:	8f ef       	ldi	r24, 0xFF	; 255
     4aa:	82 bb       	out	0x12, r24	; 18
     4ac:	81 e0       	ldi	r24, 0x01	; 1
     4ae:	08 95       	ret

000004b0 <EF_S8_DIO_ClearPort>:
     4b0:	84 34       	cpi	r24, 0x44	; 68
     4b2:	e9 f0       	breq	.+58     	; 0x4ee <EF_S8_DIO_ClearPort+0x3e>
     4b4:	85 34       	cpi	r24, 0x45	; 69
     4b6:	38 f4       	brcc	.+14     	; 0x4c6 <EF_S8_DIO_ClearPort+0x16>
     4b8:	82 34       	cpi	r24, 0x42	; 66
     4ba:	a1 f0       	breq	.+40     	; 0x4e4 <EF_S8_DIO_ClearPort+0x34>
     4bc:	83 34       	cpi	r24, 0x43	; 67
     4be:	a0 f4       	brcc	.+40     	; 0x4e8 <EF_S8_DIO_ClearPort+0x38>
     4c0:	81 34       	cpi	r24, 0x41	; 65
     4c2:	61 f4       	brne	.+24     	; 0x4dc <EF_S8_DIO_ClearPort+0x2c>
     4c4:	0d c0       	rjmp	.+26     	; 0x4e0 <EF_S8_DIO_ClearPort+0x30>
     4c6:	82 36       	cpi	r24, 0x62	; 98
     4c8:	69 f0       	breq	.+26     	; 0x4e4 <EF_S8_DIO_ClearPort+0x34>
     4ca:	83 36       	cpi	r24, 0x63	; 99
     4cc:	18 f4       	brcc	.+6      	; 0x4d4 <EF_S8_DIO_ClearPort+0x24>
     4ce:	81 36       	cpi	r24, 0x61	; 97
     4d0:	29 f4       	brne	.+10     	; 0x4dc <EF_S8_DIO_ClearPort+0x2c>
     4d2:	06 c0       	rjmp	.+12     	; 0x4e0 <EF_S8_DIO_ClearPort+0x30>
     4d4:	83 36       	cpi	r24, 0x63	; 99
     4d6:	41 f0       	breq	.+16     	; 0x4e8 <EF_S8_DIO_ClearPort+0x38>
     4d8:	84 36       	cpi	r24, 0x64	; 100
     4da:	49 f0       	breq	.+18     	; 0x4ee <EF_S8_DIO_ClearPort+0x3e>
     4dc:	8f ef       	ldi	r24, 0xFF	; 255
     4de:	08 95       	ret
     4e0:	1b ba       	out	0x1b, r1	; 27
     4e2:	03 c0       	rjmp	.+6      	; 0x4ea <EF_S8_DIO_ClearPort+0x3a>
     4e4:	18 ba       	out	0x18, r1	; 24
     4e6:	01 c0       	rjmp	.+2      	; 0x4ea <EF_S8_DIO_ClearPort+0x3a>
     4e8:	15 ba       	out	0x15, r1	; 21
     4ea:	81 e0       	ldi	r24, 0x01	; 1
     4ec:	08 95       	ret
     4ee:	12 ba       	out	0x12, r1	; 18
     4f0:	81 e0       	ldi	r24, 0x01	; 1
     4f2:	08 95       	ret

000004f4 <EF_S8_DIO_TogglePin>:
     4f4:	68 30       	cpi	r22, 0x08	; 8
     4f6:	08 f0       	brcs	.+2      	; 0x4fa <EF_S8_DIO_TogglePin+0x6>
     4f8:	44 c0       	rjmp	.+136    	; 0x582 <EF_S8_DIO_TogglePin+0x8e>
     4fa:	84 34       	cpi	r24, 0x44	; 68
     4fc:	b1 f1       	breq	.+108    	; 0x56a <EF_S8_DIO_TogglePin+0x76>
     4fe:	85 34       	cpi	r24, 0x45	; 69
     500:	38 f4       	brcc	.+14     	; 0x510 <EF_S8_DIO_TogglePin+0x1c>
     502:	82 34       	cpi	r24, 0x42	; 66
     504:	e1 f0       	breq	.+56     	; 0x53e <EF_S8_DIO_TogglePin+0x4a>
     506:	83 34       	cpi	r24, 0x43	; 67
     508:	28 f5       	brcc	.+74     	; 0x554 <EF_S8_DIO_TogglePin+0x60>
     50a:	81 34       	cpi	r24, 0x41	; 65
     50c:	d1 f5       	brne	.+116    	; 0x582 <EF_S8_DIO_TogglePin+0x8e>
     50e:	0c c0       	rjmp	.+24     	; 0x528 <EF_S8_DIO_TogglePin+0x34>
     510:	82 36       	cpi	r24, 0x62	; 98
     512:	a9 f0       	breq	.+42     	; 0x53e <EF_S8_DIO_TogglePin+0x4a>
     514:	83 36       	cpi	r24, 0x63	; 99
     516:	18 f4       	brcc	.+6      	; 0x51e <EF_S8_DIO_TogglePin+0x2a>
     518:	81 36       	cpi	r24, 0x61	; 97
     51a:	99 f5       	brne	.+102    	; 0x582 <EF_S8_DIO_TogglePin+0x8e>
     51c:	05 c0       	rjmp	.+10     	; 0x528 <EF_S8_DIO_TogglePin+0x34>
     51e:	83 36       	cpi	r24, 0x63	; 99
     520:	c9 f0       	breq	.+50     	; 0x554 <EF_S8_DIO_TogglePin+0x60>
     522:	84 36       	cpi	r24, 0x64	; 100
     524:	71 f5       	brne	.+92     	; 0x582 <EF_S8_DIO_TogglePin+0x8e>
     526:	21 c0       	rjmp	.+66     	; 0x56a <EF_S8_DIO_TogglePin+0x76>
     528:	2b b3       	in	r18, 0x1b	; 27
     52a:	81 e0       	ldi	r24, 0x01	; 1
     52c:	90 e0       	ldi	r25, 0x00	; 0
     52e:	02 c0       	rjmp	.+4      	; 0x534 <EF_S8_DIO_TogglePin+0x40>
     530:	88 0f       	add	r24, r24
     532:	99 1f       	adc	r25, r25
     534:	6a 95       	dec	r22
     536:	e2 f7       	brpl	.-8      	; 0x530 <EF_S8_DIO_TogglePin+0x3c>
     538:	28 27       	eor	r18, r24
     53a:	2b bb       	out	0x1b, r18	; 27
     53c:	20 c0       	rjmp	.+64     	; 0x57e <EF_S8_DIO_TogglePin+0x8a>
     53e:	28 b3       	in	r18, 0x18	; 24
     540:	81 e0       	ldi	r24, 0x01	; 1
     542:	90 e0       	ldi	r25, 0x00	; 0
     544:	02 c0       	rjmp	.+4      	; 0x54a <EF_S8_DIO_TogglePin+0x56>
     546:	88 0f       	add	r24, r24
     548:	99 1f       	adc	r25, r25
     54a:	6a 95       	dec	r22
     54c:	e2 f7       	brpl	.-8      	; 0x546 <EF_S8_DIO_TogglePin+0x52>
     54e:	28 27       	eor	r18, r24
     550:	28 bb       	out	0x18, r18	; 24
     552:	15 c0       	rjmp	.+42     	; 0x57e <EF_S8_DIO_TogglePin+0x8a>
     554:	25 b3       	in	r18, 0x15	; 21
     556:	81 e0       	ldi	r24, 0x01	; 1
     558:	90 e0       	ldi	r25, 0x00	; 0
     55a:	02 c0       	rjmp	.+4      	; 0x560 <EF_S8_DIO_TogglePin+0x6c>
     55c:	88 0f       	add	r24, r24
     55e:	99 1f       	adc	r25, r25
     560:	6a 95       	dec	r22
     562:	e2 f7       	brpl	.-8      	; 0x55c <EF_S8_DIO_TogglePin+0x68>
     564:	28 27       	eor	r18, r24
     566:	25 bb       	out	0x15, r18	; 21
     568:	0a c0       	rjmp	.+20     	; 0x57e <EF_S8_DIO_TogglePin+0x8a>
     56a:	22 b3       	in	r18, 0x12	; 18
     56c:	81 e0       	ldi	r24, 0x01	; 1
     56e:	90 e0       	ldi	r25, 0x00	; 0
     570:	02 c0       	rjmp	.+4      	; 0x576 <EF_S8_DIO_TogglePin+0x82>
     572:	88 0f       	add	r24, r24
     574:	99 1f       	adc	r25, r25
     576:	6a 95       	dec	r22
     578:	e2 f7       	brpl	.-8      	; 0x572 <EF_S8_DIO_TogglePin+0x7e>
     57a:	28 27       	eor	r18, r24
     57c:	22 bb       	out	0x12, r18	; 18
     57e:	81 e0       	ldi	r24, 0x01	; 1
     580:	08 95       	ret
     582:	8f ef       	ldi	r24, 0xFF	; 255
     584:	08 95       	ret

00000586 <EF_S8_DIO_CheckPin>:
     586:	68 30       	cpi	r22, 0x08	; 8
     588:	78 f5       	brcc	.+94     	; 0x5e8 <EF_S8_DIO_CheckPin+0x62>
     58a:	84 34       	cpi	r24, 0x44	; 68
     58c:	d9 f0       	breq	.+54     	; 0x5c4 <EF_S8_DIO_CheckPin+0x3e>
     58e:	85 34       	cpi	r24, 0x45	; 69
     590:	38 f4       	brcc	.+14     	; 0x5a0 <EF_S8_DIO_CheckPin+0x1a>
     592:	82 34       	cpi	r24, 0x42	; 66
     594:	99 f0       	breq	.+38     	; 0x5bc <EF_S8_DIO_CheckPin+0x36>
     596:	83 34       	cpi	r24, 0x43	; 67
     598:	98 f4       	brcc	.+38     	; 0x5c0 <EF_S8_DIO_CheckPin+0x3a>
     59a:	81 34       	cpi	r24, 0x41	; 65
     59c:	29 f5       	brne	.+74     	; 0x5e8 <EF_S8_DIO_CheckPin+0x62>
     59e:	0c c0       	rjmp	.+24     	; 0x5b8 <EF_S8_DIO_CheckPin+0x32>
     5a0:	82 36       	cpi	r24, 0x62	; 98
     5a2:	61 f0       	breq	.+24     	; 0x5bc <EF_S8_DIO_CheckPin+0x36>
     5a4:	83 36       	cpi	r24, 0x63	; 99
     5a6:	18 f4       	brcc	.+6      	; 0x5ae <EF_S8_DIO_CheckPin+0x28>
     5a8:	81 36       	cpi	r24, 0x61	; 97
     5aa:	f1 f4       	brne	.+60     	; 0x5e8 <EF_S8_DIO_CheckPin+0x62>
     5ac:	05 c0       	rjmp	.+10     	; 0x5b8 <EF_S8_DIO_CheckPin+0x32>
     5ae:	83 36       	cpi	r24, 0x63	; 99
     5b0:	39 f0       	breq	.+14     	; 0x5c0 <EF_S8_DIO_CheckPin+0x3a>
     5b2:	84 36       	cpi	r24, 0x64	; 100
     5b4:	c9 f4       	brne	.+50     	; 0x5e8 <EF_S8_DIO_CheckPin+0x62>
     5b6:	06 c0       	rjmp	.+12     	; 0x5c4 <EF_S8_DIO_CheckPin+0x3e>
     5b8:	29 b3       	in	r18, 0x19	; 25
     5ba:	05 c0       	rjmp	.+10     	; 0x5c6 <EF_S8_DIO_CheckPin+0x40>
     5bc:	26 b3       	in	r18, 0x16	; 22
     5be:	03 c0       	rjmp	.+6      	; 0x5c6 <EF_S8_DIO_CheckPin+0x40>
     5c0:	23 b3       	in	r18, 0x13	; 19
     5c2:	01 c0       	rjmp	.+2      	; 0x5c6 <EF_S8_DIO_CheckPin+0x40>
     5c4:	20 b3       	in	r18, 0x10	; 16
     5c6:	81 e0       	ldi	r24, 0x01	; 1
     5c8:	90 e0       	ldi	r25, 0x00	; 0
     5ca:	06 2e       	mov	r0, r22
     5cc:	02 c0       	rjmp	.+4      	; 0x5d2 <EF_S8_DIO_CheckPin+0x4c>
     5ce:	88 0f       	add	r24, r24
     5d0:	99 1f       	adc	r25, r25
     5d2:	0a 94       	dec	r0
     5d4:	e2 f7       	brpl	.-8      	; 0x5ce <EF_S8_DIO_CheckPin+0x48>
     5d6:	30 e0       	ldi	r19, 0x00	; 0
     5d8:	82 23       	and	r24, r18
     5da:	93 23       	and	r25, r19
     5dc:	02 c0       	rjmp	.+4      	; 0x5e2 <EF_S8_DIO_CheckPin+0x5c>
     5de:	95 95       	asr	r25
     5e0:	87 95       	ror	r24
     5e2:	6a 95       	dec	r22
     5e4:	e2 f7       	brpl	.-8      	; 0x5de <EF_S8_DIO_CheckPin+0x58>
     5e6:	08 95       	ret
     5e8:	8f ef       	ldi	r24, 0xFF	; 255
     5ea:	08 95       	ret

000005ec <EF_void_EEPROM_WriteByte>:
     5ec:	e1 99       	sbic	0x1c, 1	; 28
     5ee:	fe cf       	rjmp	.-4      	; 0x5ec <EF_void_EEPROM_WriteByte>
     5f0:	9f bb       	out	0x1f, r25	; 31
     5f2:	8e bb       	out	0x1e, r24	; 30
     5f4:	6d bb       	out	0x1d, r22	; 29
     5f6:	e2 9a       	sbi	0x1c, 2	; 28
     5f8:	e1 9a       	sbi	0x1c, 1	; 28
     5fa:	08 95       	ret

000005fc <EF_u8_EPROM_ReadByte>:
     5fc:	e1 99       	sbic	0x1c, 1	; 28
     5fe:	fe cf       	rjmp	.-4      	; 0x5fc <EF_u8_EPROM_ReadByte>
     600:	9f bb       	out	0x1f, r25	; 31
     602:	8e bb       	out	0x1e, r24	; 30
     604:	e0 9a       	sbi	0x1c, 0	; 28
     606:	80 ed       	ldi	r24, 0xD0	; 208
     608:	97 e0       	ldi	r25, 0x07	; 7
     60a:	01 97       	sbiw	r24, 0x01	; 1
     60c:	f1 f7       	brne	.-4      	; 0x60a <EF_u8_EPROM_ReadByte+0xe>
     60e:	8d b3       	in	r24, 0x1d	; 29
     610:	08 95       	ret

00000612 <EF_void_EEPROM_WriteNBytes>:
     612:	df 92       	push	r13
     614:	ef 92       	push	r14
     616:	ff 92       	push	r15
     618:	0f 93       	push	r16
     61a:	1f 93       	push	r17
     61c:	cf 93       	push	r28
     61e:	df 93       	push	r29
     620:	7c 01       	movw	r14, r24
     622:	8b 01       	movw	r16, r22
     624:	d4 2e       	mov	r13, r20
     626:	fb 01       	movw	r30, r22
     628:	80 81       	ld	r24, Z
     62a:	88 23       	and	r24, r24
     62c:	71 f0       	breq	.+28     	; 0x64a <EF_void_EEPROM_WriteNBytes+0x38>
     62e:	c0 e0       	ldi	r28, 0x00	; 0
     630:	d0 e0       	ldi	r29, 0x00	; 0
     632:	06 c0       	rjmp	.+12     	; 0x640 <EF_void_EEPROM_WriteNBytes+0x2e>
     634:	f8 01       	movw	r30, r16
     636:	61 91       	ld	r22, Z+
     638:	8f 01       	movw	r16, r30
     63a:	0e 94 f6 02 	call	0x5ec	; 0x5ec <EF_void_EEPROM_WriteByte>
     63e:	21 96       	adiw	r28, 0x01	; 1
     640:	ce 01       	movw	r24, r28
     642:	8e 0d       	add	r24, r14
     644:	9f 1d       	adc	r25, r15
     646:	dc 16       	cp	r13, r28
     648:	a9 f7       	brne	.-22     	; 0x634 <EF_void_EEPROM_WriteNBytes+0x22>
     64a:	df 91       	pop	r29
     64c:	cf 91       	pop	r28
     64e:	1f 91       	pop	r17
     650:	0f 91       	pop	r16
     652:	ff 90       	pop	r15
     654:	ef 90       	pop	r14
     656:	df 90       	pop	r13
     658:	08 95       	ret

0000065a <EF_void_EEPROM_ReadNBytes>:
     65a:	ff 92       	push	r15
     65c:	0f 93       	push	r16
     65e:	1f 93       	push	r17
     660:	cf 93       	push	r28
     662:	df 93       	push	r29
     664:	8c 01       	movw	r16, r24
     666:	eb 01       	movw	r28, r22
     668:	f4 2e       	mov	r15, r20
     66a:	88 81       	ld	r24, Y
     66c:	88 23       	and	r24, r24
     66e:	41 f4       	brne	.+16     	; 0x680 <EF_void_EEPROM_ReadNBytes+0x26>
     670:	09 c0       	rjmp	.+18     	; 0x684 <EF_void_EEPROM_ReadNBytes+0x2a>
     672:	c8 01       	movw	r24, r16
     674:	0e 94 fe 02 	call	0x5fc	; 0x5fc <EF_u8_EPROM_ReadByte>
     678:	89 93       	st	Y+, r24
     67a:	0f 5f       	subi	r16, 0xFF	; 255
     67c:	1f 4f       	sbci	r17, 0xFF	; 255
     67e:	fa 94       	dec	r15
     680:	ff 20       	and	r15, r15
     682:	b9 f7       	brne	.-18     	; 0x672 <EF_void_EEPROM_ReadNBytes+0x18>
     684:	df 91       	pop	r29
     686:	cf 91       	pop	r28
     688:	1f 91       	pop	r17
     68a:	0f 91       	pop	r16
     68c:	ff 90       	pop	r15
     68e:	08 95       	ret

00000690 <EF_void_EEPROM_Erase>:
     690:	cf 93       	push	r28
     692:	df 93       	push	r29
     694:	c0 e0       	ldi	r28, 0x00	; 0
     696:	d0 e0       	ldi	r29, 0x00	; 0
     698:	ce 01       	movw	r24, r28
     69a:	6f ef       	ldi	r22, 0xFF	; 255
     69c:	0e 94 f6 02 	call	0x5ec	; 0x5ec <EF_void_EEPROM_WriteByte>
     6a0:	21 96       	adiw	r28, 0x01	; 1
     6a2:	84 e0       	ldi	r24, 0x04	; 4
     6a4:	c0 30       	cpi	r28, 0x00	; 0
     6a6:	d8 07       	cpc	r29, r24
     6a8:	b9 f7       	brne	.-18     	; 0x698 <EF_void_EEPROM_Erase+0x8>
     6aa:	df 91       	pop	r29
     6ac:	cf 91       	pop	r28
     6ae:	08 95       	ret

000006b0 <EF_void_I2C_Write>:
     6b0:	83 b9       	out	0x03, r24	; 3
     6b2:	84 e8       	ldi	r24, 0x84	; 132
     6b4:	86 bf       	out	0x36, r24	; 54
     6b6:	06 b6       	in	r0, 0x36	; 54
     6b8:	07 fe       	sbrs	r0, 7
     6ba:	fd cf       	rjmp	.-6      	; 0x6b6 <EF_void_I2C_Write+0x6>
     6bc:	08 95       	ret

000006be <EF_void_I2C_Start>:
     6be:	84 ea       	ldi	r24, 0xA4	; 164
     6c0:	86 bf       	out	0x36, r24	; 54
     6c2:	06 b6       	in	r0, 0x36	; 54
     6c4:	07 fe       	sbrs	r0, 7
     6c6:	fd cf       	rjmp	.-6      	; 0x6c2 <EF_void_I2C_Start+0x4>
     6c8:	08 95       	ret

000006ca <EF_void_I2C_Stop>:
     6ca:	84 e9       	ldi	r24, 0x94	; 148
     6cc:	86 bf       	out	0x36, r24	; 54
     6ce:	08 95       	ret

000006d0 <EF_void_I2C_Init>:
     6d0:	11 b8       	out	0x01, r1	; 1
     6d2:	87 e4       	ldi	r24, 0x47	; 71
     6d4:	80 b9       	out	0x00, r24	; 0
     6d6:	84 e0       	ldi	r24, 0x04	; 4
     6d8:	86 bf       	out	0x36, r24	; 54
     6da:	08 95       	ret

000006dc <EF_U8_I2C_Read_Byte>:
     6dc:	88 23       	and	r24, r24
     6de:	31 f0       	breq	.+12     	; 0x6ec <EF_U8_I2C_Read_Byte+0x10>
     6e0:	82 95       	swap	r24
     6e2:	88 0f       	add	r24, r24
     6e4:	88 0f       	add	r24, r24
     6e6:	80 7c       	andi	r24, 0xC0	; 192
     6e8:	84 68       	ori	r24, 0x84	; 132
     6ea:	01 c0       	rjmp	.+2      	; 0x6ee <EF_U8_I2C_Read_Byte+0x12>
     6ec:	84 e8       	ldi	r24, 0x84	; 132
     6ee:	86 bf       	out	0x36, r24	; 54
     6f0:	06 b6       	in	r0, 0x36	; 54
     6f2:	07 fe       	sbrs	r0, 7
     6f4:	fd cf       	rjmp	.-6      	; 0x6f0 <EF_U8_I2C_Read_Byte+0x14>
     6f6:	83 b1       	in	r24, 0x03	; 3
     6f8:	08 95       	ret

000006fa <EF_void_InputCapture_Init>:
     6fa:	1f bc       	out	0x2f, r1	; 47
     6fc:	08 95       	ret

000006fe <EF_BOOLEAN_InputCapture_GetPeriod>:
     6fe:	cf 92       	push	r12
     700:	df 92       	push	r13
     702:	ef 92       	push	r14
     704:	ff 92       	push	r15
     706:	1f 93       	push	r17
     708:	cf 93       	push	r28
     70a:	df 93       	push	r29
     70c:	6c 01       	movw	r12, r24
     70e:	eb 01       	movw	r28, r22
     710:	83 e4       	ldi	r24, 0x43	; 67
     712:	8e bd       	out	0x2e, r24	; 46
     714:	85 e0       	ldi	r24, 0x05	; 5
     716:	0e 94 d1 04 	call	0x9a2	; 0x9a2 <EF_void_TimerCreate>
     71a:	85 e0       	ldi	r24, 0x05	; 5
     71c:	0e 94 30 05 	call	0xa60	; 0xa60 <EF_void_TimerStart>
     720:	08 b6       	in	r0, 0x38	; 56
     722:	05 fc       	sbrc	r0, 5
     724:	05 c0       	rjmp	.+10     	; 0x730 <EF_BOOLEAN_InputCapture_GetPeriod+0x32>
     726:	85 e0       	ldi	r24, 0x05	; 5
     728:	0e 94 20 05 	call	0xa40	; 0xa40 <EF_BOOLEAN_TimerCheck>
     72c:	88 23       	and	r24, r24
     72e:	c1 f3       	breq	.-16     	; 0x720 <EF_BOOLEAN_InputCapture_GetPeriod+0x22>
     730:	85 e0       	ldi	r24, 0x05	; 5
     732:	0e 94 20 05 	call	0xa40	; 0xa40 <EF_BOOLEAN_TimerCheck>
     736:	18 2f       	mov	r17, r24
     738:	85 e0       	ldi	r24, 0x05	; 5
     73a:	0e 94 41 05 	call	0xa82	; 0xa82 <EF_void_TimerStop>
     73e:	85 e0       	ldi	r24, 0x05	; 5
     740:	0e 94 4d 05 	call	0xa9a	; 0xa9a <EF_void_TimerReset>
     744:	e6 b4       	in	r14, 0x26	; 38
     746:	f7 b4       	in	r15, 0x27	; 39
     748:	88 b7       	in	r24, 0x38	; 56
     74a:	80 62       	ori	r24, 0x20	; 32
     74c:	88 bf       	out	0x38, r24	; 56
     74e:	11 30       	cpi	r17, 0x01	; 1
     750:	11 f4       	brne	.+4      	; 0x756 <EF_BOOLEAN_InputCapture_GetPeriod+0x58>
     752:	10 e0       	ldi	r17, 0x00	; 0
     754:	26 c0       	rjmp	.+76     	; 0x7a2 <EF_BOOLEAN_InputCapture_GetPeriod+0xa4>
     756:	85 e0       	ldi	r24, 0x05	; 5
     758:	be 01       	movw	r22, r28
     75a:	0e 94 d1 04 	call	0x9a2	; 0x9a2 <EF_void_TimerCreate>
     75e:	85 e0       	ldi	r24, 0x05	; 5
     760:	0e 94 30 05 	call	0xa60	; 0xa60 <EF_void_TimerStart>
     764:	08 b6       	in	r0, 0x38	; 56
     766:	05 fc       	sbrc	r0, 5
     768:	05 c0       	rjmp	.+10     	; 0x774 <EF_BOOLEAN_InputCapture_GetPeriod+0x76>
     76a:	85 e0       	ldi	r24, 0x05	; 5
     76c:	0e 94 20 05 	call	0xa40	; 0xa40 <EF_BOOLEAN_TimerCheck>
     770:	88 23       	and	r24, r24
     772:	c1 f3       	breq	.-16     	; 0x764 <EF_BOOLEAN_InputCapture_GetPeriod+0x66>
     774:	85 e0       	ldi	r24, 0x05	; 5
     776:	0e 94 20 05 	call	0xa40	; 0xa40 <EF_BOOLEAN_TimerCheck>
     77a:	10 e0       	ldi	r17, 0x00	; 0
     77c:	81 30       	cpi	r24, 0x01	; 1
     77e:	09 f0       	breq	.+2      	; 0x782 <EF_BOOLEAN_InputCapture_GetPeriod+0x84>
     780:	11 e0       	ldi	r17, 0x01	; 1
     782:	85 e0       	ldi	r24, 0x05	; 5
     784:	0e 94 41 05 	call	0xa82	; 0xa82 <EF_void_TimerStop>
     788:	85 e0       	ldi	r24, 0x05	; 5
     78a:	0e 94 4d 05 	call	0xa9a	; 0xa9a <EF_void_TimerReset>
     78e:	86 b5       	in	r24, 0x26	; 38
     790:	97 b5       	in	r25, 0x27	; 39
     792:	8e 19       	sub	r24, r14
     794:	9f 09       	sbc	r25, r15
     796:	f6 01       	movw	r30, r12
     798:	91 83       	std	Z+1, r25	; 0x01
     79a:	80 83       	st	Z, r24
     79c:	88 b7       	in	r24, 0x38	; 56
     79e:	80 62       	ori	r24, 0x20	; 32
     7a0:	88 bf       	out	0x38, r24	; 56
     7a2:	81 2f       	mov	r24, r17
     7a4:	df 91       	pop	r29
     7a6:	cf 91       	pop	r28
     7a8:	1f 91       	pop	r17
     7aa:	ff 90       	pop	r15
     7ac:	ef 90       	pop	r14
     7ae:	df 90       	pop	r13
     7b0:	cf 90       	pop	r12
     7b2:	08 95       	ret

000007b4 <EF_BOOLEAN_InputCapture_GetPulse>:
     7b4:	cf 92       	push	r12
     7b6:	df 92       	push	r13
     7b8:	ef 92       	push	r14
     7ba:	ff 92       	push	r15
     7bc:	1f 93       	push	r17
     7be:	cf 93       	push	r28
     7c0:	df 93       	push	r29
     7c2:	6c 01       	movw	r12, r24
     7c4:	eb 01       	movw	r28, r22
     7c6:	83 e4       	ldi	r24, 0x43	; 67
     7c8:	8e bd       	out	0x2e, r24	; 46
     7ca:	85 e0       	ldi	r24, 0x05	; 5
     7cc:	0e 94 d1 04 	call	0x9a2	; 0x9a2 <EF_void_TimerCreate>
     7d0:	85 e0       	ldi	r24, 0x05	; 5
     7d2:	0e 94 30 05 	call	0xa60	; 0xa60 <EF_void_TimerStart>
     7d6:	08 b6       	in	r0, 0x38	; 56
     7d8:	05 fc       	sbrc	r0, 5
     7da:	05 c0       	rjmp	.+10     	; 0x7e6 <EF_BOOLEAN_InputCapture_GetPulse+0x32>
     7dc:	85 e0       	ldi	r24, 0x05	; 5
     7de:	0e 94 20 05 	call	0xa40	; 0xa40 <EF_BOOLEAN_TimerCheck>
     7e2:	88 23       	and	r24, r24
     7e4:	c1 f3       	breq	.-16     	; 0x7d6 <EF_BOOLEAN_InputCapture_GetPulse+0x22>
     7e6:	85 e0       	ldi	r24, 0x05	; 5
     7e8:	0e 94 20 05 	call	0xa40	; 0xa40 <EF_BOOLEAN_TimerCheck>
     7ec:	18 2f       	mov	r17, r24
     7ee:	85 e0       	ldi	r24, 0x05	; 5
     7f0:	0e 94 41 05 	call	0xa82	; 0xa82 <EF_void_TimerStop>
     7f4:	85 e0       	ldi	r24, 0x05	; 5
     7f6:	0e 94 4d 05 	call	0xa9a	; 0xa9a <EF_void_TimerReset>
     7fa:	e6 b4       	in	r14, 0x26	; 38
     7fc:	f7 b4       	in	r15, 0x27	; 39
     7fe:	88 b7       	in	r24, 0x38	; 56
     800:	80 62       	ori	r24, 0x20	; 32
     802:	88 bf       	out	0x38, r24	; 56
     804:	11 30       	cpi	r17, 0x01	; 1
     806:	11 f4       	brne	.+4      	; 0x80c <EF_BOOLEAN_InputCapture_GetPulse+0x58>
     808:	10 e0       	ldi	r17, 0x00	; 0
     80a:	28 c0       	rjmp	.+80     	; 0x85c <EF_BOOLEAN_InputCapture_GetPulse+0xa8>
     80c:	83 e0       	ldi	r24, 0x03	; 3
     80e:	8e bd       	out	0x2e, r24	; 46
     810:	85 e0       	ldi	r24, 0x05	; 5
     812:	be 01       	movw	r22, r28
     814:	0e 94 d1 04 	call	0x9a2	; 0x9a2 <EF_void_TimerCreate>
     818:	85 e0       	ldi	r24, 0x05	; 5
     81a:	0e 94 30 05 	call	0xa60	; 0xa60 <EF_void_TimerStart>
     81e:	08 b6       	in	r0, 0x38	; 56
     820:	05 fc       	sbrc	r0, 5
     822:	05 c0       	rjmp	.+10     	; 0x82e <EF_BOOLEAN_InputCapture_GetPulse+0x7a>
     824:	85 e0       	ldi	r24, 0x05	; 5
     826:	0e 94 20 05 	call	0xa40	; 0xa40 <EF_BOOLEAN_TimerCheck>
     82a:	88 23       	and	r24, r24
     82c:	c1 f3       	breq	.-16     	; 0x81e <EF_BOOLEAN_InputCapture_GetPulse+0x6a>
     82e:	85 e0       	ldi	r24, 0x05	; 5
     830:	0e 94 20 05 	call	0xa40	; 0xa40 <EF_BOOLEAN_TimerCheck>
     834:	10 e0       	ldi	r17, 0x00	; 0
     836:	81 30       	cpi	r24, 0x01	; 1
     838:	09 f0       	breq	.+2      	; 0x83c <EF_BOOLEAN_InputCapture_GetPulse+0x88>
     83a:	11 e0       	ldi	r17, 0x01	; 1
     83c:	85 e0       	ldi	r24, 0x05	; 5
     83e:	0e 94 41 05 	call	0xa82	; 0xa82 <EF_void_TimerStop>
     842:	85 e0       	ldi	r24, 0x05	; 5
     844:	0e 94 4d 05 	call	0xa9a	; 0xa9a <EF_void_TimerReset>
     848:	86 b5       	in	r24, 0x26	; 38
     84a:	97 b5       	in	r25, 0x27	; 39
     84c:	8e 19       	sub	r24, r14
     84e:	9f 09       	sbc	r25, r15
     850:	f6 01       	movw	r30, r12
     852:	91 83       	std	Z+1, r25	; 0x01
     854:	80 83       	st	Z, r24
     856:	88 b7       	in	r24, 0x38	; 56
     858:	80 62       	ori	r24, 0x20	; 32
     85a:	88 bf       	out	0x38, r24	; 56
     85c:	81 2f       	mov	r24, r17
     85e:	df 91       	pop	r29
     860:	cf 91       	pop	r28
     862:	1f 91       	pop	r17
     864:	ff 90       	pop	r15
     866:	ef 90       	pop	r14
     868:	df 90       	pop	r13
     86a:	cf 90       	pop	r12
     86c:	08 95       	ret

0000086e <EF_void_PWM_init>:
     86e:	81 30       	cpi	r24, 0x01	; 1
     870:	91 f0       	breq	.+36     	; 0x896 <EF_void_PWM_init+0x28>
     872:	81 30       	cpi	r24, 0x01	; 1
     874:	50 f0       	brcs	.+20     	; 0x88a <EF_void_PWM_init+0x1c>
     876:	82 30       	cpi	r24, 0x02	; 2
     878:	c1 f0       	breq	.+48     	; 0x8aa <EF_void_PWM_init+0x3c>
     87a:	83 30       	cpi	r24, 0x03	; 3
     87c:	f9 f4       	brne	.+62     	; 0x8bc <EF_void_PWM_init+0x4e>
     87e:	8f 9a       	sbi	0x11, 7	; 17
     880:	15 bc       	out	0x25, r1	; 37
     882:	89 e6       	ldi	r24, 0x69	; 105
     884:	85 bd       	out	0x25, r24	; 37
     886:	14 bc       	out	0x24, r1	; 36
     888:	08 95       	ret
     88a:	bb 9a       	sbi	0x17, 3	; 23
     88c:	13 be       	out	0x33, r1	; 51
     88e:	8b e6       	ldi	r24, 0x6B	; 107
     890:	83 bf       	out	0x33, r24	; 51
     892:	12 be       	out	0x32, r1	; 50
     894:	08 95       	ret
     896:	8d 9a       	sbi	0x11, 5	; 17
     898:	8f b5       	in	r24, 0x2f	; 47
     89a:	81 68       	ori	r24, 0x81	; 129
     89c:	8f bd       	out	0x2f, r24	; 47
     89e:	8e b5       	in	r24, 0x2e	; 46
     8a0:	8b 60       	ori	r24, 0x0B	; 11
     8a2:	8e bd       	out	0x2e, r24	; 46
     8a4:	1d bc       	out	0x2d, r1	; 45
     8a6:	1c bc       	out	0x2c, r1	; 44
     8a8:	08 95       	ret
     8aa:	8c 9a       	sbi	0x11, 4	; 17
     8ac:	8f b5       	in	r24, 0x2f	; 47
     8ae:	81 62       	ori	r24, 0x21	; 33
     8b0:	8f bd       	out	0x2f, r24	; 47
     8b2:	8e b5       	in	r24, 0x2e	; 46
     8b4:	8b 60       	ori	r24, 0x0B	; 11
     8b6:	8e bd       	out	0x2e, r24	; 46
     8b8:	1d bc       	out	0x2d, r1	; 45
     8ba:	1c bc       	out	0x2c, r1	; 44
     8bc:	08 95       	ret

000008be <EF_void_PWM_SetDutyValue>:
     8be:	61 30       	cpi	r22, 0x01	; 1
     8c0:	51 f0       	breq	.+20     	; 0x8d6 <EF_void_PWM_SetDutyValue+0x18>
     8c2:	61 30       	cpi	r22, 0x01	; 1
     8c4:	30 f0       	brcs	.+12     	; 0x8d2 <EF_void_PWM_SetDutyValue+0x14>
     8c6:	62 30       	cpi	r22, 0x02	; 2
     8c8:	51 f0       	breq	.+20     	; 0x8de <EF_void_PWM_SetDutyValue+0x20>
     8ca:	63 30       	cpi	r22, 0x03	; 3
     8cc:	59 f4       	brne	.+22     	; 0x8e4 <EF_void_PWM_SetDutyValue+0x26>
     8ce:	83 bd       	out	0x23, r24	; 35
     8d0:	08 95       	ret
     8d2:	8c bf       	out	0x3c, r24	; 60
     8d4:	08 95       	ret
     8d6:	90 e0       	ldi	r25, 0x00	; 0
     8d8:	9b bd       	out	0x2b, r25	; 43
     8da:	8a bd       	out	0x2a, r24	; 42
     8dc:	08 95       	ret
     8de:	90 e0       	ldi	r25, 0x00	; 0
     8e0:	99 bd       	out	0x29, r25	; 41
     8e2:	88 bd       	out	0x28, r24	; 40
     8e4:	08 95       	ret

000008e6 <EF_void_PWM_SetDutyCycle>:
     8e6:	26 2f       	mov	r18, r22
     8e8:	9f ef       	ldi	r25, 0xFF	; 255
     8ea:	89 9f       	mul	r24, r25
     8ec:	c0 01       	movw	r24, r0
     8ee:	11 24       	eor	r1, r1
     8f0:	64 e6       	ldi	r22, 0x64	; 100
     8f2:	70 e0       	ldi	r23, 0x00	; 0
     8f4:	0e 94 cf 1a 	call	0x359e	; 0x359e <__divmodhi4>
     8f8:	22 23       	and	r18, r18
     8fa:	21 f0       	breq	.+8      	; 0x904 <EF_void_PWM_SetDutyCycle+0x1e>
     8fc:	23 30       	cpi	r18, 0x03	; 3
     8fe:	19 f4       	brne	.+6      	; 0x906 <EF_void_PWM_SetDutyCycle+0x20>
     900:	63 bd       	out	0x23, r22	; 35
     902:	08 95       	ret
     904:	6c bf       	out	0x3c, r22	; 60
     906:	08 95       	ret

00000908 <EF_SpiTransfer>:
     908:	8f b9       	out	0x0f, r24	; 15
     90a:	77 9b       	sbis	0x0e, 7	; 14
     90c:	fe cf       	rjmp	.-4      	; 0x90a <EF_SpiTransfer+0x2>
     90e:	8f b1       	in	r24, 0x0f	; 15
     910:	08 95       	ret

00000912 <EF_BOOLEAN_SpiTransfer>:
     912:	cf 93       	push	r28
     914:	df 93       	push	r29
     916:	ec 01       	movw	r28, r24
     918:	87 e0       	ldi	r24, 0x07	; 7
     91a:	0e 94 30 05 	call	0xa60	; 0xa60 <EF_void_TimerStart>
     91e:	88 81       	ld	r24, Y
     920:	8f b9       	out	0x0f, r24	; 15
     922:	77 99       	sbic	0x0e, 7	; 14
     924:	05 c0       	rjmp	.+10     	; 0x930 <EF_BOOLEAN_SpiTransfer+0x1e>
     926:	87 e0       	ldi	r24, 0x07	; 7
     928:	0e 94 20 05 	call	0xa40	; 0xa40 <EF_BOOLEAN_TimerCheck>
     92c:	88 23       	and	r24, r24
     92e:	c9 f3       	breq	.-14     	; 0x922 <EF_BOOLEAN_SpiTransfer+0x10>
     930:	87 e0       	ldi	r24, 0x07	; 7
     932:	0e 94 41 05 	call	0xa82	; 0xa82 <EF_void_TimerStop>
     936:	87 e0       	ldi	r24, 0x07	; 7
     938:	0e 94 4d 05 	call	0xa9a	; 0xa9a <EF_void_TimerReset>
     93c:	8e b1       	in	r24, 0x0e	; 14
     93e:	9f b1       	in	r25, 0x0f	; 15
     940:	98 83       	st	Y, r25
     942:	88 1f       	adc	r24, r24
     944:	88 27       	eor	r24, r24
     946:	88 1f       	adc	r24, r24
     948:	df 91       	pop	r29
     94a:	cf 91       	pop	r28
     94c:	08 95       	ret

0000094e <EF_SpiInit>:
     94e:	93 e6       	ldi	r25, 0x63	; 99
     950:	9d b9       	out	0x0d, r25	; 13
     952:	81 30       	cpi	r24, 0x01	; 1
     954:	29 f4       	brne	.+10     	; 0x960 <EF_SpiInit+0x12>
     956:	6c 9a       	sbi	0x0d, 4	; 13
     958:	87 b3       	in	r24, 0x17	; 23
     95a:	80 6b       	ori	r24, 0xB0	; 176
     95c:	87 bb       	out	0x17, r24	; 23
     95e:	01 c0       	rjmp	.+2      	; 0x962 <EF_SpiInit+0x14>
     960:	be 9a       	sbi	0x17, 6	; 23
     962:	87 e0       	ldi	r24, 0x07	; 7
     964:	65 e0       	ldi	r22, 0x05	; 5
     966:	70 e0       	ldi	r23, 0x00	; 0
     968:	0e 94 d1 04 	call	0x9a2	; 0x9a2 <EF_void_TimerCreate>
     96c:	08 95       	ret

0000096e <EF_void_TimerDelete>:
     96e:	90 e0       	ldi	r25, 0x00	; 0
     970:	fc 01       	movw	r30, r24
     972:	ee 0f       	add	r30, r30
     974:	ff 1f       	adc	r31, r31
     976:	e8 0f       	add	r30, r24
     978:	f9 1f       	adc	r31, r25
     97a:	df 01       	movw	r26, r30
     97c:	11 96       	adiw	r26, 0x01	; 1
     97e:	86 e8       	ldi	r24, 0x86	; 134
     980:	95 e0       	ldi	r25, 0x05	; 5
     982:	aa 0f       	add	r26, r26
     984:	bb 1f       	adc	r27, r27
     986:	a8 0f       	add	r26, r24
     988:	b9 1f       	adc	r27, r25
     98a:	11 96       	adiw	r26, 0x01	; 1
     98c:	1c 92       	st	X, r1
     98e:	1e 92       	st	-X, r1
     990:	ee 0f       	add	r30, r30
     992:	ff 1f       	adc	r31, r31
     994:	e8 0f       	add	r30, r24
     996:	f9 1f       	adc	r31, r25
     998:	11 82       	std	Z+1, r1	; 0x01
     99a:	10 82       	st	Z, r1
     99c:	14 82       	std	Z+4, r1	; 0x04
     99e:	15 82       	std	Z+5, r1	; 0x05
     9a0:	08 95       	ret

000009a2 <EF_void_TimerCreate>:
     9a2:	90 e0       	ldi	r25, 0x00	; 0
     9a4:	fc 01       	movw	r30, r24
     9a6:	ee 0f       	add	r30, r30
     9a8:	ff 1f       	adc	r31, r31
     9aa:	e8 0f       	add	r30, r24
     9ac:	f9 1f       	adc	r31, r25
     9ae:	df 01       	movw	r26, r30
     9b0:	aa 0f       	add	r26, r26
     9b2:	bb 1f       	adc	r27, r27
     9b4:	aa 57       	subi	r26, 0x7A	; 122
     9b6:	ba 4f       	sbci	r27, 0xFA	; 250
     9b8:	8d 91       	ld	r24, X+
     9ba:	9c 91       	ld	r25, X
     9bc:	11 97       	sbiw	r26, 0x01	; 1
     9be:	89 2b       	or	r24, r25
     9c0:	71 f4       	brne	.+28     	; 0x9de <EF_void_TimerCreate+0x3c>
     9c2:	11 96       	adiw	r26, 0x01	; 1
     9c4:	7c 93       	st	X, r23
     9c6:	6e 93       	st	-X, r22
     9c8:	ee 0f       	add	r30, r30
     9ca:	ff 1f       	adc	r31, r31
     9cc:	e8 57       	subi	r30, 0x78	; 120
     9ce:	fa 4f       	sbci	r31, 0xFA	; 250
     9d0:	11 82       	std	Z+1, r1	; 0x01
     9d2:	10 82       	st	Z, r1
     9d4:	14 96       	adiw	r26, 0x04	; 4
     9d6:	1c 92       	st	X, r1
     9d8:	14 97       	sbiw	r26, 0x04	; 4
     9da:	15 96       	adiw	r26, 0x05	; 5
     9dc:	1c 92       	st	X, r1
     9de:	08 95       	ret

000009e0 <EF_void_TimersUpdate>:
     9e0:	40 e0       	ldi	r20, 0x00	; 0
     9e2:	50 e0       	ldi	r21, 0x00	; 0
     9e4:	9a 01       	movw	r18, r20
     9e6:	22 0f       	add	r18, r18
     9e8:	33 1f       	adc	r19, r19
     9ea:	24 0f       	add	r18, r20
     9ec:	35 1f       	adc	r19, r21
     9ee:	d9 01       	movw	r26, r18
     9f0:	aa 0f       	add	r26, r26
     9f2:	bb 1f       	adc	r27, r27
     9f4:	aa 57       	subi	r26, 0x7A	; 122
     9f6:	ba 4f       	sbci	r27, 0xFA	; 250
     9f8:	15 96       	adiw	r26, 0x05	; 5
     9fa:	6c 91       	ld	r22, X
     9fc:	15 97       	sbiw	r26, 0x05	; 5
     9fe:	61 30       	cpi	r22, 0x01	; 1
     a00:	b1 f4       	brne	.+44     	; 0xa2e <EF_void_TimersUpdate+0x4e>
     a02:	f9 01       	movw	r30, r18
     a04:	ee 0f       	add	r30, r30
     a06:	ff 1f       	adc	r31, r31
     a08:	e8 57       	subi	r30, 0x78	; 120
     a0a:	fa 4f       	sbci	r31, 0xFA	; 250
     a0c:	80 81       	ld	r24, Z
     a0e:	91 81       	ldd	r25, Z+1	; 0x01
     a10:	01 96       	adiw	r24, 0x01	; 1
     a12:	91 83       	std	Z+1, r25	; 0x01
     a14:	80 83       	st	Z, r24
     a16:	20 81       	ld	r18, Z
     a18:	31 81       	ldd	r19, Z+1	; 0x01
     a1a:	8d 91       	ld	r24, X+
     a1c:	9c 91       	ld	r25, X
     a1e:	11 97       	sbiw	r26, 0x01	; 1
     a20:	28 17       	cp	r18, r24
     a22:	39 07       	cpc	r19, r25
     a24:	21 f4       	brne	.+8      	; 0xa2e <EF_void_TimersUpdate+0x4e>
     a26:	11 82       	std	Z+1, r1	; 0x01
     a28:	10 82       	st	Z, r1
     a2a:	14 96       	adiw	r26, 0x04	; 4
     a2c:	6c 93       	st	X, r22
     a2e:	4f 5f       	subi	r20, 0xFF	; 255
     a30:	5f 4f       	sbci	r21, 0xFF	; 255
     a32:	4a 30       	cpi	r20, 0x0A	; 10
     a34:	51 05       	cpc	r21, r1
     a36:	b1 f6       	brne	.-84     	; 0x9e4 <EF_void_TimersUpdate+0x4>
     a38:	08 95       	ret

00000a3a <EF_void_TimerISRCallback>:
     a3a:	0e 94 f0 04 	call	0x9e0	; 0x9e0 <EF_void_TimersUpdate>
     a3e:	08 95       	ret

00000a40 <EF_BOOLEAN_TimerCheck>:
     a40:	90 e0       	ldi	r25, 0x00	; 0
     a42:	fc 01       	movw	r30, r24
     a44:	ee 0f       	add	r30, r30
     a46:	ff 1f       	adc	r31, r31
     a48:	e8 0f       	add	r30, r24
     a4a:	f9 1f       	adc	r31, r25
     a4c:	ee 0f       	add	r30, r30
     a4e:	ff 1f       	adc	r31, r31
     a50:	ea 57       	subi	r30, 0x7A	; 122
     a52:	fa 4f       	sbci	r31, 0xFA	; 250
     a54:	84 81       	ldd	r24, Z+4	; 0x04
     a56:	88 23       	and	r24, r24
     a58:	11 f0       	breq	.+4      	; 0xa5e <EF_BOOLEAN_TimerCheck+0x1e>
     a5a:	14 82       	std	Z+4, r1	; 0x04
     a5c:	81 e0       	ldi	r24, 0x01	; 1
     a5e:	08 95       	ret

00000a60 <EF_void_TimerStart>:
     a60:	90 e0       	ldi	r25, 0x00	; 0
     a62:	fc 01       	movw	r30, r24
     a64:	ee 0f       	add	r30, r30
     a66:	ff 1f       	adc	r31, r31
     a68:	e8 0f       	add	r30, r24
     a6a:	f9 1f       	adc	r31, r25
     a6c:	ee 0f       	add	r30, r30
     a6e:	ff 1f       	adc	r31, r31
     a70:	ea 57       	subi	r30, 0x7A	; 122
     a72:	fa 4f       	sbci	r31, 0xFA	; 250
     a74:	80 81       	ld	r24, Z
     a76:	91 81       	ldd	r25, Z+1	; 0x01
     a78:	89 2b       	or	r24, r25
     a7a:	11 f0       	breq	.+4      	; 0xa80 <EF_void_TimerStart+0x20>
     a7c:	81 e0       	ldi	r24, 0x01	; 1
     a7e:	85 83       	std	Z+5, r24	; 0x05
     a80:	08 95       	ret

00000a82 <EF_void_TimerStop>:
     a82:	90 e0       	ldi	r25, 0x00	; 0
     a84:	fc 01       	movw	r30, r24
     a86:	ee 0f       	add	r30, r30
     a88:	ff 1f       	adc	r31, r31
     a8a:	e8 0f       	add	r30, r24
     a8c:	f9 1f       	adc	r31, r25
     a8e:	ee 0f       	add	r30, r30
     a90:	ff 1f       	adc	r31, r31
     a92:	ea 57       	subi	r30, 0x7A	; 122
     a94:	fa 4f       	sbci	r31, 0xFA	; 250
     a96:	15 82       	std	Z+5, r1	; 0x05
     a98:	08 95       	ret

00000a9a <EF_void_TimerReset>:
     a9a:	90 e0       	ldi	r25, 0x00	; 0
     a9c:	fc 01       	movw	r30, r24
     a9e:	ee 0f       	add	r30, r30
     aa0:	ff 1f       	adc	r31, r31
     aa2:	e8 0f       	add	r30, r24
     aa4:	f9 1f       	adc	r31, r25
     aa6:	ee 0f       	add	r30, r30
     aa8:	ff 1f       	adc	r31, r31
     aaa:	e8 57       	subi	r30, 0x78	; 120
     aac:	fa 4f       	sbci	r31, 0xFA	; 250
     aae:	11 82       	std	Z+1, r1	; 0x01
     ab0:	10 82       	st	Z, r1
     ab2:	08 95       	ret

00000ab4 <EF_void_TimerInit>:
     ab4:	0e 94 7a 05 	call	0xaf4	; 0xaf4 <EF_void_Timer_PORTinit>
     ab8:	8d e1       	ldi	r24, 0x1D	; 29
     aba:	95 e0       	ldi	r25, 0x05	; 5
     abc:	0e 94 87 05 	call	0xb0e	; 0xb0e <EF_void_Timer_SetISRCallBack>
     ac0:	80 e0       	ldi	r24, 0x00	; 0
     ac2:	90 e0       	ldi	r25, 0x00	; 0
     ac4:	fc 01       	movw	r30, r24
     ac6:	ee 0f       	add	r30, r30
     ac8:	ff 1f       	adc	r31, r31
     aca:	e8 0f       	add	r30, r24
     acc:	f9 1f       	adc	r31, r25
     ace:	ee 0f       	add	r30, r30
     ad0:	ff 1f       	adc	r31, r31
     ad2:	df 01       	movw	r26, r30
     ad4:	a8 57       	subi	r26, 0x78	; 120
     ad6:	ba 4f       	sbci	r27, 0xFA	; 250
     ad8:	11 96       	adiw	r26, 0x01	; 1
     ada:	1c 92       	st	X, r1
     adc:	1e 92       	st	-X, r1
     ade:	ea 57       	subi	r30, 0x7A	; 122
     ae0:	fa 4f       	sbci	r31, 0xFA	; 250
     ae2:	11 82       	std	Z+1, r1	; 0x01
     ae4:	10 82       	st	Z, r1
     ae6:	14 82       	std	Z+4, r1	; 0x04
     ae8:	15 82       	std	Z+5, r1	; 0x05
     aea:	01 96       	adiw	r24, 0x01	; 1
     aec:	8a 30       	cpi	r24, 0x0A	; 10
     aee:	91 05       	cpc	r25, r1
     af0:	49 f7       	brne	.-46     	; 0xac4 <EF_void_TimerInit+0x10>
     af2:	08 95       	ret

00000af4 <EF_void_Timer_PORTinit>:
     af4:	85 b5       	in	r24, 0x25	; 37
     af6:	87 60       	ori	r24, 0x07	; 7
     af8:	85 bd       	out	0x25, r24	; 37
     afa:	89 e7       	ldi	r24, 0x79	; 121
     afc:	84 bd       	out	0x24, r24	; 36
     afe:	89 b7       	in	r24, 0x39	; 57
     b00:	80 64       	ori	r24, 0x40	; 64
     b02:	89 bf       	out	0x39, r24	; 57
     b04:	88 b7       	in	r24, 0x38	; 56
     b06:	80 64       	ori	r24, 0x40	; 64
     b08:	88 bf       	out	0x38, r24	; 56
     b0a:	78 94       	sei
     b0c:	08 95       	ret

00000b0e <EF_void_Timer_SetISRCallBack>:
     b0e:	90 93 c3 05 	sts	0x05C3, r25
     b12:	80 93 c2 05 	sts	0x05C2, r24
     b16:	08 95       	ret

00000b18 <EF_void_Timer_RemoveTimerISRCallBack>:
     b18:	10 92 c3 05 	sts	0x05C3, r1
     b1c:	10 92 c2 05 	sts	0x05C2, r1
     b20:	08 95       	ret

00000b22 <__vector_5>:
     b22:	1f 92       	push	r1
     b24:	0f 92       	push	r0
     b26:	0f b6       	in	r0, 0x3f	; 63
     b28:	0f 92       	push	r0
     b2a:	11 24       	eor	r1, r1
     b2c:	2f 93       	push	r18
     b2e:	3f 93       	push	r19
     b30:	4f 93       	push	r20
     b32:	5f 93       	push	r21
     b34:	6f 93       	push	r22
     b36:	7f 93       	push	r23
     b38:	8f 93       	push	r24
     b3a:	9f 93       	push	r25
     b3c:	af 93       	push	r26
     b3e:	bf 93       	push	r27
     b40:	ef 93       	push	r30
     b42:	ff 93       	push	r31
     b44:	e0 91 c2 05 	lds	r30, 0x05C2
     b48:	f0 91 c3 05 	lds	r31, 0x05C3
     b4c:	30 97       	sbiw	r30, 0x00	; 0
     b4e:	09 f0       	breq	.+2      	; 0xb52 <__vector_5+0x30>
     b50:	09 95       	icall
     b52:	89 e7       	ldi	r24, 0x79	; 121
     b54:	84 bd       	out	0x24, r24	; 36
     b56:	88 b7       	in	r24, 0x38	; 56
     b58:	80 64       	ori	r24, 0x40	; 64
     b5a:	88 bf       	out	0x38, r24	; 56
     b5c:	ff 91       	pop	r31
     b5e:	ef 91       	pop	r30
     b60:	bf 91       	pop	r27
     b62:	af 91       	pop	r26
     b64:	9f 91       	pop	r25
     b66:	8f 91       	pop	r24
     b68:	7f 91       	pop	r23
     b6a:	6f 91       	pop	r22
     b6c:	5f 91       	pop	r21
     b6e:	4f 91       	pop	r20
     b70:	3f 91       	pop	r19
     b72:	2f 91       	pop	r18
     b74:	0f 90       	pop	r0
     b76:	0f be       	out	0x3f, r0	; 63
     b78:	0f 90       	pop	r0
     b7a:	1f 90       	pop	r1
     b7c:	18 95       	reti

00000b7e <EF_u8_UART_WaitChar>:
     b7e:	5f 9b       	sbis	0x0b, 7	; 11
     b80:	fe cf       	rjmp	.-4      	; 0xb7e <EF_u8_UART_WaitChar>
     b82:	8c b1       	in	r24, 0x0c	; 12
     b84:	08 95       	ret

00000b86 <EF_void_UART_PutChar>:
     b86:	5d 9b       	sbis	0x0b, 5	; 11
     b88:	fe cf       	rjmp	.-4      	; 0xb86 <EF_void_UART_PutChar>
     b8a:	8c b9       	out	0x0c, r24	; 12
     b8c:	08 95       	ret

00000b8e <EF_void_UART_SendArray>:
     b8e:	fc 01       	movw	r30, r24
     b90:	80 e0       	ldi	r24, 0x00	; 0
     b92:	06 c0       	rjmp	.+12     	; 0xba0 <EF_void_UART_SendArray+0x12>
     b94:	90 81       	ld	r25, Z
     b96:	5d 9b       	sbis	0x0b, 5	; 11
     b98:	fe cf       	rjmp	.-4      	; 0xb96 <EF_void_UART_SendArray+0x8>
     b9a:	9c b9       	out	0x0c, r25	; 12
     b9c:	8f 5f       	subi	r24, 0xFF	; 255
     b9e:	31 96       	adiw	r30, 0x01	; 1
     ba0:	86 17       	cp	r24, r22
     ba2:	c0 f3       	brcs	.-16     	; 0xb94 <EF_void_UART_SendArray+0x6>
     ba4:	08 95       	ret

00000ba6 <EF_void_UART_SendString>:
     ba6:	20 e0       	ldi	r18, 0x00	; 0
     ba8:	04 c0       	rjmp	.+8      	; 0xbb2 <EF_void_UART_SendString+0xc>
     baa:	5d 9b       	sbis	0x0b, 5	; 11
     bac:	fe cf       	rjmp	.-4      	; 0xbaa <EF_void_UART_SendString+0x4>
     bae:	ec b9       	out	0x0c, r30	; 12
     bb0:	2f 5f       	subi	r18, 0xFF	; 255
     bb2:	fc 01       	movw	r30, r24
     bb4:	e2 0f       	add	r30, r18
     bb6:	f1 1d       	adc	r31, r1
     bb8:	e0 81       	ld	r30, Z
     bba:	ee 23       	and	r30, r30
     bbc:	b1 f7       	brne	.-20     	; 0xbaa <EF_void_UART_SendString+0x4>
     bbe:	08 95       	ret

00000bc0 <EF_void_UART_SendNewLine>:
     bc0:	5d 9b       	sbis	0x0b, 5	; 11
     bc2:	fe cf       	rjmp	.-4      	; 0xbc0 <EF_void_UART_SendNewLine>
     bc4:	8d e0       	ldi	r24, 0x0D	; 13
     bc6:	8c b9       	out	0x0c, r24	; 12
     bc8:	5d 9b       	sbis	0x0b, 5	; 11
     bca:	fe cf       	rjmp	.-4      	; 0xbc8 <EF_void_UART_SendNewLine+0x8>
     bcc:	8a e0       	ldi	r24, 0x0A	; 10
     bce:	8c b9       	out	0x0c, r24	; 12
     bd0:	08 95       	ret

00000bd2 <EF_void_UART_update_time>:
     bd2:	cf 92       	push	r12
     bd4:	df 92       	push	r13
     bd6:	ef 92       	push	r14
     bd8:	ff 92       	push	r15
     bda:	0f 93       	push	r16
     bdc:	1f 93       	push	r17
     bde:	df 93       	push	r29
     be0:	cf 93       	push	r28
     be2:	00 d0       	rcall	.+0      	; 0xbe4 <EF_void_UART_update_time+0x12>
     be4:	cd b7       	in	r28, 0x3d	; 61
     be6:	de b7       	in	r29, 0x3e	; 62
     be8:	f8 2e       	mov	r15, r24
     bea:	d6 2e       	mov	r13, r22
     bec:	c4 2e       	mov	r12, r20
     bee:	6a e0       	ldi	r22, 0x0A	; 10
     bf0:	0e 94 af 1a 	call	0x355e	; 0x355e <__udivmodqi4>
     bf4:	90 e0       	ldi	r25, 0x00	; 0
     bf6:	8e 01       	movw	r16, r28
     bf8:	0f 5f       	subi	r16, 0xFF	; 255
     bfa:	1f 4f       	sbci	r17, 0xFF	; 255
     bfc:	b8 01       	movw	r22, r16
     bfe:	4a e0       	ldi	r20, 0x0A	; 10
     c00:	50 e0       	ldi	r21, 0x00	; 0
     c02:	0e 94 04 1b 	call	0x3608	; 0x3608 <itoa>
     c06:	c8 01       	movw	r24, r16
     c08:	0e 94 d3 05 	call	0xba6	; 0xba6 <EF_void_UART_SendString>
     c0c:	8f 2d       	mov	r24, r15
     c0e:	6a e0       	ldi	r22, 0x0A	; 10
     c10:	0e 94 af 1a 	call	0x355e	; 0x355e <__udivmodqi4>
     c14:	89 2f       	mov	r24, r25
     c16:	90 e0       	ldi	r25, 0x00	; 0
     c18:	b8 01       	movw	r22, r16
     c1a:	4a e0       	ldi	r20, 0x0A	; 10
     c1c:	50 e0       	ldi	r21, 0x00	; 0
     c1e:	0e 94 04 1b 	call	0x3608	; 0x3608 <itoa>
     c22:	c8 01       	movw	r24, r16
     c24:	0e 94 d3 05 	call	0xba6	; 0xba6 <EF_void_UART_SendString>
     c28:	80 e6       	ldi	r24, 0x60	; 96
     c2a:	e8 2e       	mov	r14, r24
     c2c:	80 e0       	ldi	r24, 0x00	; 0
     c2e:	f8 2e       	mov	r15, r24
     c30:	c7 01       	movw	r24, r14
     c32:	0e 94 d3 05 	call	0xba6	; 0xba6 <EF_void_UART_SendString>
     c36:	8d 2d       	mov	r24, r13
     c38:	6a e0       	ldi	r22, 0x0A	; 10
     c3a:	0e 94 af 1a 	call	0x355e	; 0x355e <__udivmodqi4>
     c3e:	90 e0       	ldi	r25, 0x00	; 0
     c40:	b8 01       	movw	r22, r16
     c42:	4a e0       	ldi	r20, 0x0A	; 10
     c44:	50 e0       	ldi	r21, 0x00	; 0
     c46:	0e 94 04 1b 	call	0x3608	; 0x3608 <itoa>
     c4a:	c8 01       	movw	r24, r16
     c4c:	0e 94 d3 05 	call	0xba6	; 0xba6 <EF_void_UART_SendString>
     c50:	8d 2d       	mov	r24, r13
     c52:	6a e0       	ldi	r22, 0x0A	; 10
     c54:	0e 94 af 1a 	call	0x355e	; 0x355e <__udivmodqi4>
     c58:	89 2f       	mov	r24, r25
     c5a:	90 e0       	ldi	r25, 0x00	; 0
     c5c:	b8 01       	movw	r22, r16
     c5e:	4a e0       	ldi	r20, 0x0A	; 10
     c60:	50 e0       	ldi	r21, 0x00	; 0
     c62:	0e 94 04 1b 	call	0x3608	; 0x3608 <itoa>
     c66:	c8 01       	movw	r24, r16
     c68:	0e 94 d3 05 	call	0xba6	; 0xba6 <EF_void_UART_SendString>
     c6c:	c7 01       	movw	r24, r14
     c6e:	0e 94 d3 05 	call	0xba6	; 0xba6 <EF_void_UART_SendString>
     c72:	8c 2d       	mov	r24, r12
     c74:	6a e0       	ldi	r22, 0x0A	; 10
     c76:	0e 94 af 1a 	call	0x355e	; 0x355e <__udivmodqi4>
     c7a:	90 e0       	ldi	r25, 0x00	; 0
     c7c:	b8 01       	movw	r22, r16
     c7e:	4a e0       	ldi	r20, 0x0A	; 10
     c80:	50 e0       	ldi	r21, 0x00	; 0
     c82:	0e 94 04 1b 	call	0x3608	; 0x3608 <itoa>
     c86:	c8 01       	movw	r24, r16
     c88:	0e 94 d3 05 	call	0xba6	; 0xba6 <EF_void_UART_SendString>
     c8c:	8c 2d       	mov	r24, r12
     c8e:	6a e0       	ldi	r22, 0x0A	; 10
     c90:	0e 94 af 1a 	call	0x355e	; 0x355e <__udivmodqi4>
     c94:	89 2f       	mov	r24, r25
     c96:	90 e0       	ldi	r25, 0x00	; 0
     c98:	b8 01       	movw	r22, r16
     c9a:	4a e0       	ldi	r20, 0x0A	; 10
     c9c:	50 e0       	ldi	r21, 0x00	; 0
     c9e:	0e 94 04 1b 	call	0x3608	; 0x3608 <itoa>
     ca2:	c8 01       	movw	r24, r16
     ca4:	0e 94 d3 05 	call	0xba6	; 0xba6 <EF_void_UART_SendString>
     ca8:	0f 90       	pop	r0
     caa:	0f 90       	pop	r0
     cac:	cf 91       	pop	r28
     cae:	df 91       	pop	r29
     cb0:	1f 91       	pop	r17
     cb2:	0f 91       	pop	r16
     cb4:	ff 90       	pop	r15
     cb6:	ef 90       	pop	r14
     cb8:	df 90       	pop	r13
     cba:	cf 90       	pop	r12
     cbc:	08 95       	ret

00000cbe <EF_void_UART_Send_Integer>:
     cbe:	0f 93       	push	r16
     cc0:	1f 93       	push	r17
     cc2:	df 93       	push	r29
     cc4:	cf 93       	push	r28
     cc6:	00 d0       	rcall	.+0      	; 0xcc8 <EF_void_UART_Send_Integer+0xa>
     cc8:	00 d0       	rcall	.+0      	; 0xcca <EF_void_UART_Send_Integer+0xc>
     cca:	00 d0       	rcall	.+0      	; 0xccc <EF_void_UART_Send_Integer+0xe>
     ccc:	cd b7       	in	r28, 0x3d	; 61
     cce:	de b7       	in	r29, 0x3e	; 62
     cd0:	8e 01       	movw	r16, r28
     cd2:	0f 5f       	subi	r16, 0xFF	; 255
     cd4:	1f 4f       	sbci	r17, 0xFF	; 255
     cd6:	26 e0       	ldi	r18, 0x06	; 6
     cd8:	f8 01       	movw	r30, r16
     cda:	11 92       	st	Z+, r1
     cdc:	2a 95       	dec	r18
     cde:	e9 f7       	brne	.-6      	; 0xcda <EF_void_UART_Send_Integer+0x1c>
     ce0:	b8 01       	movw	r22, r16
     ce2:	4a e0       	ldi	r20, 0x0A	; 10
     ce4:	50 e0       	ldi	r21, 0x00	; 0
     ce6:	0e 94 04 1b 	call	0x3608	; 0x3608 <itoa>
     cea:	80 e0       	ldi	r24, 0x00	; 0
     cec:	98 01       	movw	r18, r16
     cee:	04 c0       	rjmp	.+8      	; 0xcf8 <EF_void_UART_Send_Integer+0x3a>
     cf0:	5d 9b       	sbis	0x0b, 5	; 11
     cf2:	fe cf       	rjmp	.-4      	; 0xcf0 <EF_void_UART_Send_Integer+0x32>
     cf4:	ec b9       	out	0x0c, r30	; 12
     cf6:	8f 5f       	subi	r24, 0xFF	; 255
     cf8:	f9 01       	movw	r30, r18
     cfa:	e8 0f       	add	r30, r24
     cfc:	f1 1d       	adc	r31, r1
     cfe:	e0 81       	ld	r30, Z
     d00:	ee 23       	and	r30, r30
     d02:	b1 f7       	brne	.-20     	; 0xcf0 <EF_void_UART_Send_Integer+0x32>
     d04:	26 96       	adiw	r28, 0x06	; 6
     d06:	0f b6       	in	r0, 0x3f	; 63
     d08:	f8 94       	cli
     d0a:	de bf       	out	0x3e, r29	; 62
     d0c:	0f be       	out	0x3f, r0	; 63
     d0e:	cd bf       	out	0x3d, r28	; 61
     d10:	cf 91       	pop	r28
     d12:	df 91       	pop	r29
     d14:	1f 91       	pop	r17
     d16:	0f 91       	pop	r16
     d18:	08 95       	ret

00000d1a <EF_void_UART_Send_data_PBM>:
     d1a:	0f 93       	push	r16
     d1c:	1f 93       	push	r17
     d1e:	df 93       	push	r29
     d20:	cf 93       	push	r28
     d22:	00 d0       	rcall	.+0      	; 0xd24 <EF_void_UART_Send_data_PBM+0xa>
     d24:	00 d0       	rcall	.+0      	; 0xd26 <EF_void_UART_Send_data_PBM+0xc>
     d26:	00 d0       	rcall	.+0      	; 0xd28 <EF_void_UART_Send_data_PBM+0xe>
     d28:	cd b7       	in	r28, 0x3d	; 61
     d2a:	de b7       	in	r29, 0x3e	; 62
     d2c:	8e 01       	movw	r16, r28
     d2e:	0f 5f       	subi	r16, 0xFF	; 255
     d30:	1f 4f       	sbci	r17, 0xFF	; 255
     d32:	26 e0       	ldi	r18, 0x06	; 6
     d34:	f8 01       	movw	r30, r16
     d36:	11 92       	st	Z+, r1
     d38:	2a 95       	dec	r18
     d3a:	e9 f7       	brne	.-6      	; 0xd36 <EF_void_UART_Send_data_PBM+0x1c>
     d3c:	b8 01       	movw	r22, r16
     d3e:	4a e0       	ldi	r20, 0x0A	; 10
     d40:	50 e0       	ldi	r21, 0x00	; 0
     d42:	0e 94 04 1b 	call	0x3608	; 0x3608 <itoa>
     d46:	82 e6       	ldi	r24, 0x62	; 98
     d48:	90 e0       	ldi	r25, 0x00	; 0
     d4a:	60 e1       	ldi	r22, 0x10	; 16
     d4c:	0e 94 c7 05 	call	0xb8e	; 0xb8e <EF_void_UART_SendArray>
     d50:	90 e0       	ldi	r25, 0x00	; 0
     d52:	98 01       	movw	r18, r16
     d54:	4a e1       	ldi	r20, 0x1A	; 26
     d56:	07 c0       	rjmp	.+14     	; 0xd66 <EF_void_UART_Send_data_PBM+0x4c>
     d58:	5d 9b       	sbis	0x0b, 5	; 11
     d5a:	fe cf       	rjmp	.-4      	; 0xd58 <EF_void_UART_Send_data_PBM+0x3e>
     d5c:	ec b9       	out	0x0c, r30	; 12
     d5e:	84 2f       	mov	r24, r20
     d60:	8a 95       	dec	r24
     d62:	f1 f7       	brne	.-4      	; 0xd60 <EF_void_UART_Send_data_PBM+0x46>
     d64:	9f 5f       	subi	r25, 0xFF	; 255
     d66:	f9 01       	movw	r30, r18
     d68:	e9 0f       	add	r30, r25
     d6a:	f1 1d       	adc	r31, r1
     d6c:	e0 81       	ld	r30, Z
     d6e:	ee 23       	and	r30, r30
     d70:	99 f7       	brne	.-26     	; 0xd58 <EF_void_UART_Send_data_PBM+0x3e>
     d72:	26 96       	adiw	r28, 0x06	; 6
     d74:	0f b6       	in	r0, 0x3f	; 63
     d76:	f8 94       	cli
     d78:	de bf       	out	0x3e, r29	; 62
     d7a:	0f be       	out	0x3f, r0	; 63
     d7c:	cd bf       	out	0x3d, r28	; 61
     d7e:	cf 91       	pop	r28
     d80:	df 91       	pop	r29
     d82:	1f 91       	pop	r17
     d84:	0f 91       	pop	r16
     d86:	08 95       	ret

00000d88 <EF_void_UART_Send_data_temp>:
     d88:	0f 93       	push	r16
     d8a:	1f 93       	push	r17
     d8c:	df 93       	push	r29
     d8e:	cf 93       	push	r28
     d90:	00 d0       	rcall	.+0      	; 0xd92 <EF_void_UART_Send_data_temp+0xa>
     d92:	00 d0       	rcall	.+0      	; 0xd94 <EF_void_UART_Send_data_temp+0xc>
     d94:	00 d0       	rcall	.+0      	; 0xd96 <EF_void_UART_Send_data_temp+0xe>
     d96:	cd b7       	in	r28, 0x3d	; 61
     d98:	de b7       	in	r29, 0x3e	; 62
     d9a:	8e 01       	movw	r16, r28
     d9c:	0f 5f       	subi	r16, 0xFF	; 255
     d9e:	1f 4f       	sbci	r17, 0xFF	; 255
     da0:	26 e0       	ldi	r18, 0x06	; 6
     da2:	f8 01       	movw	r30, r16
     da4:	11 92       	st	Z+, r1
     da6:	2a 95       	dec	r18
     da8:	e9 f7       	brne	.-6      	; 0xda4 <EF_void_UART_Send_data_temp+0x1c>
     daa:	b8 01       	movw	r22, r16
     dac:	4a e0       	ldi	r20, 0x0A	; 10
     dae:	50 e0       	ldi	r21, 0x00	; 0
     db0:	0e 94 04 1b 	call	0x3608	; 0x3608 <itoa>
     db4:	83 e7       	ldi	r24, 0x73	; 115
     db6:	90 e0       	ldi	r25, 0x00	; 0
     db8:	6f e0       	ldi	r22, 0x0F	; 15
     dba:	0e 94 c7 05 	call	0xb8e	; 0xb8e <EF_void_UART_SendArray>
     dbe:	20 e0       	ldi	r18, 0x00	; 0
     dc0:	b8 01       	movw	r22, r16
     dc2:	3e e2       	ldi	r19, 0x2E	; 46
     dc4:	40 ed       	ldi	r20, 0xD0	; 208
     dc6:	57 e0       	ldi	r21, 0x07	; 7
     dc8:	0c c0       	rjmp	.+24     	; 0xde2 <EF_void_UART_Send_data_temp+0x5a>
     dca:	5d 9b       	sbis	0x0b, 5	; 11
     dcc:	fe cf       	rjmp	.-4      	; 0xdca <EF_void_UART_Send_data_temp+0x42>
     dce:	ec b9       	out	0x0c, r30	; 12
     dd0:	21 30       	cpi	r18, 0x01	; 1
     dd2:	19 f4       	brne	.+6      	; 0xdda <EF_void_UART_Send_data_temp+0x52>
     dd4:	5d 9b       	sbis	0x0b, 5	; 11
     dd6:	fe cf       	rjmp	.-4      	; 0xdd4 <EF_void_UART_Send_data_temp+0x4c>
     dd8:	3c b9       	out	0x0c, r19	; 12
     dda:	ca 01       	movw	r24, r20
     ddc:	01 97       	sbiw	r24, 0x01	; 1
     dde:	f1 f7       	brne	.-4      	; 0xddc <EF_void_UART_Send_data_temp+0x54>
     de0:	2f 5f       	subi	r18, 0xFF	; 255
     de2:	fb 01       	movw	r30, r22
     de4:	e2 0f       	add	r30, r18
     de6:	f1 1d       	adc	r31, r1
     de8:	e0 81       	ld	r30, Z
     dea:	ee 23       	and	r30, r30
     dec:	71 f7       	brne	.-36     	; 0xdca <EF_void_UART_Send_data_temp+0x42>
     dee:	82 e8       	ldi	r24, 0x82	; 130
     df0:	90 e0       	ldi	r25, 0x00	; 0
     df2:	63 e0       	ldi	r22, 0x03	; 3
     df4:	0e 94 c7 05 	call	0xb8e	; 0xb8e <EF_void_UART_SendArray>
     df8:	26 96       	adiw	r28, 0x06	; 6
     dfa:	0f b6       	in	r0, 0x3f	; 63
     dfc:	f8 94       	cli
     dfe:	de bf       	out	0x3e, r29	; 62
     e00:	0f be       	out	0x3f, r0	; 63
     e02:	cd bf       	out	0x3d, r28	; 61
     e04:	cf 91       	pop	r28
     e06:	df 91       	pop	r29
     e08:	1f 91       	pop	r17
     e0a:	0f 91       	pop	r16
     e0c:	08 95       	ret

00000e0e <EF_BOOLEAN_UART_PutChar>:
     e0e:	1f 93       	push	r17
     e10:	18 2f       	mov	r17, r24
     e12:	86 e0       	ldi	r24, 0x06	; 6
     e14:	0e 94 30 05 	call	0xa60	; 0xa60 <EF_void_TimerStart>
     e18:	5d 99       	sbic	0x0b, 5	; 11
     e1a:	05 c0       	rjmp	.+10     	; 0xe26 <EF_BOOLEAN_UART_PutChar+0x18>
     e1c:	86 e0       	ldi	r24, 0x06	; 6
     e1e:	0e 94 20 05 	call	0xa40	; 0xa40 <EF_BOOLEAN_TimerCheck>
     e22:	88 23       	and	r24, r24
     e24:	c9 f3       	breq	.-14     	; 0xe18 <EF_BOOLEAN_UART_PutChar+0xa>
     e26:	86 e0       	ldi	r24, 0x06	; 6
     e28:	0e 94 41 05 	call	0xa82	; 0xa82 <EF_void_TimerStop>
     e2c:	86 e0       	ldi	r24, 0x06	; 6
     e2e:	0e 94 4d 05 	call	0xa9a	; 0xa9a <EF_void_TimerReset>
     e32:	5d 99       	sbic	0x0b, 5	; 11
     e34:	02 c0       	rjmp	.+4      	; 0xe3a <EF_BOOLEAN_UART_PutChar+0x2c>
     e36:	80 e0       	ldi	r24, 0x00	; 0
     e38:	02 c0       	rjmp	.+4      	; 0xe3e <EF_BOOLEAN_UART_PutChar+0x30>
     e3a:	1c b9       	out	0x0c, r17	; 12
     e3c:	81 e0       	ldi	r24, 0x01	; 1
     e3e:	1f 91       	pop	r17
     e40:	08 95       	ret

00000e42 <EF_BOOLEAN_UART_GetChar>:
     e42:	cf 93       	push	r28
     e44:	df 93       	push	r29
     e46:	ec 01       	movw	r28, r24
     e48:	86 e0       	ldi	r24, 0x06	; 6
     e4a:	0e 94 30 05 	call	0xa60	; 0xa60 <EF_void_TimerStart>
     e4e:	5f 99       	sbic	0x0b, 7	; 11
     e50:	05 c0       	rjmp	.+10     	; 0xe5c <EF_BOOLEAN_UART_GetChar+0x1a>
     e52:	86 e0       	ldi	r24, 0x06	; 6
     e54:	0e 94 20 05 	call	0xa40	; 0xa40 <EF_BOOLEAN_TimerCheck>
     e58:	88 23       	and	r24, r24
     e5a:	c9 f3       	breq	.-14     	; 0xe4e <EF_BOOLEAN_UART_GetChar+0xc>
     e5c:	86 e0       	ldi	r24, 0x06	; 6
     e5e:	0e 94 41 05 	call	0xa82	; 0xa82 <EF_void_TimerStop>
     e62:	86 e0       	ldi	r24, 0x06	; 6
     e64:	0e 94 4d 05 	call	0xa9a	; 0xa9a <EF_void_TimerReset>
     e68:	8b b1       	in	r24, 0x0b	; 11
     e6a:	9c b1       	in	r25, 0x0c	; 12
     e6c:	98 83       	st	Y, r25
     e6e:	88 1f       	adc	r24, r24
     e70:	88 27       	eor	r24, r24
     e72:	88 1f       	adc	r24, r24
     e74:	df 91       	pop	r29
     e76:	cf 91       	pop	r28
     e78:	08 95       	ret

00000e7a <EF_void_UART_Init>:
     e7a:	cf 93       	push	r28
     e7c:	df 93       	push	r29
     e7e:	ec 01       	movw	r28, r24
     e80:	1a b8       	out	0x0a, r1	; 10
     e82:	10 bc       	out	0x20, r1	; 32
     e84:	28 81       	ld	r18, Y
     e86:	39 81       	ldd	r19, Y+1	; 0x01
     e88:	4a 81       	ldd	r20, Y+2	; 0x02
     e8a:	5b 81       	ldd	r21, Y+3	; 0x03
     e8c:	64 e0       	ldi	r22, 0x04	; 4
     e8e:	22 0f       	add	r18, r18
     e90:	33 1f       	adc	r19, r19
     e92:	44 1f       	adc	r20, r20
     e94:	55 1f       	adc	r21, r21
     e96:	6a 95       	dec	r22
     e98:	d1 f7       	brne	.-12     	; 0xe8e <EF_void_UART_Init+0x14>
     e9a:	60 e0       	ldi	r22, 0x00	; 0
     e9c:	72 e1       	ldi	r23, 0x12	; 18
     e9e:	8a e7       	ldi	r24, 0x7A	; 122
     ea0:	90 e0       	ldi	r25, 0x00	; 0
     ea2:	0e 94 e2 1a 	call	0x35c4	; 0x35c4 <__udivmodsi4>
     ea6:	21 50       	subi	r18, 0x01	; 1
     ea8:	30 40       	sbci	r19, 0x00	; 0
     eaa:	40 40       	sbci	r20, 0x00	; 0
     eac:	50 40       	sbci	r21, 0x00	; 0
     eae:	bb 27       	eor	r27, r27
     eb0:	a5 2f       	mov	r26, r21
     eb2:	94 2f       	mov	r25, r20
     eb4:	83 2f       	mov	r24, r19
     eb6:	80 bd       	out	0x20, r24	; 32
     eb8:	29 b9       	out	0x09, r18	; 9
     eba:	8f 81       	ldd	r24, Y+7	; 0x07
     ebc:	81 11       	cpse	r24, r1
     ebe:	57 9a       	sbi	0x0a, 7	; 10
     ec0:	88 85       	ldd	r24, Y+8	; 0x08
     ec2:	81 11       	cpse	r24, r1
     ec4:	56 9a       	sbi	0x0a, 6	; 10
     ec6:	89 85       	ldd	r24, Y+9	; 0x09
     ec8:	81 11       	cpse	r24, r1
     eca:	54 9a       	sbi	0x0a, 4	; 10
     ecc:	8a 85       	ldd	r24, Y+10	; 0x0a
     ece:	81 11       	cpse	r24, r1
     ed0:	53 9a       	sbi	0x0a, 3	; 10
     ed2:	90 b5       	in	r25, 0x20	; 32
     ed4:	8e 81       	ldd	r24, Y+6	; 0x06
     ed6:	82 95       	swap	r24
     ed8:	80 7f       	andi	r24, 0xF0	; 240
     eda:	89 2b       	or	r24, r25
     edc:	80 bd       	out	0x20, r24	; 32
     ede:	90 b5       	in	r25, 0x20	; 32
     ee0:	8d 81       	ldd	r24, Y+5	; 0x05
     ee2:	88 0f       	add	r24, r24
     ee4:	88 0f       	add	r24, r24
     ee6:	88 0f       	add	r24, r24
     ee8:	89 2b       	or	r24, r25
     eea:	80 bd       	out	0x20, r24	; 32
     eec:	2c 81       	ldd	r18, Y+4	; 0x04
     eee:	29 30       	cpi	r18, 0x09	; 9
     ef0:	11 f4       	brne	.+4      	; 0xef6 <EF_void_UART_Init+0x7c>
     ef2:	52 9a       	sbi	0x0a, 2	; 10
     ef4:	0c c0       	rjmp	.+24     	; 0xf0e <EF_void_UART_Init+0x94>
     ef6:	25 30       	cpi	r18, 0x05	; 5
     ef8:	69 f0       	breq	.+26     	; 0xf14 <EF_void_UART_Init+0x9a>
     efa:	26 30       	cpi	r18, 0x06	; 6
     efc:	19 f4       	brne	.+6      	; 0xf04 <EF_void_UART_Init+0x8a>
     efe:	80 b5       	in	r24, 0x20	; 32
     f00:	82 68       	ori	r24, 0x82	; 130
     f02:	07 c0       	rjmp	.+14     	; 0xf12 <EF_void_UART_Init+0x98>
     f04:	27 30       	cpi	r18, 0x07	; 7
     f06:	19 f4       	brne	.+6      	; 0xf0e <EF_void_UART_Init+0x94>
     f08:	80 b5       	in	r24, 0x20	; 32
     f0a:	84 68       	ori	r24, 0x84	; 132
     f0c:	02 c0       	rjmp	.+4      	; 0xf12 <EF_void_UART_Init+0x98>
     f0e:	80 b5       	in	r24, 0x20	; 32
     f10:	86 68       	ori	r24, 0x86	; 134
     f12:	80 bd       	out	0x20, r24	; 32
     f14:	86 e0       	ldi	r24, 0x06	; 6
     f16:	65 e0       	ldi	r22, 0x05	; 5
     f18:	70 e0       	ldi	r23, 0x00	; 0
     f1a:	0e 94 d1 04 	call	0x9a2	; 0x9a2 <EF_void_TimerCreate>
     f1e:	df 91       	pop	r29
     f20:	cf 91       	pop	r28
     f22:	08 95       	ret

00000f24 <EF_7SegmentWriteData>:
     f24:	98 b3       	in	r25, 0x18	; 24
     f26:	90 7f       	andi	r25, 0xF0	; 240
     f28:	98 2b       	or	r25, r24
     f2a:	98 bb       	out	0x18, r25	; 24
     f2c:	08 95       	ret

00000f2e <EF_void_Segment_Display>:
     f2e:	ef 92       	push	r14
     f30:	ff 92       	push	r15
     f32:	0f 93       	push	r16
     f34:	1f 93       	push	r17
     f36:	cf 93       	push	r28
     f38:	df 93       	push	r29
     f3a:	ec 01       	movw	r28, r24
     f3c:	68 ee       	ldi	r22, 0xE8	; 232
     f3e:	73 e0       	ldi	r23, 0x03	; 3
     f40:	0e 94 bb 1a 	call	0x3576	; 0x3576 <__udivmodhi4>
     f44:	18 2f       	mov	r17, r24
     f46:	09 2f       	mov	r16, r25
     f48:	64 e6       	ldi	r22, 0x64	; 100
     f4a:	70 e0       	ldi	r23, 0x00	; 0
     f4c:	0e 94 bb 1a 	call	0x3576	; 0x3576 <__udivmodhi4>
     f50:	f8 2e       	mov	r15, r24
     f52:	e9 2e       	mov	r14, r25
     f54:	83 e0       	ldi	r24, 0x03	; 3
     f56:	c8 3e       	cpi	r28, 0xE8	; 232
     f58:	d8 07       	cpc	r29, r24
     f5a:	f0 f0       	brcs	.+60     	; 0xf98 <EF_void_Segment_Display+0x6a>
     f5c:	82 e4       	ldi	r24, 0x42	; 66
     f5e:	62 e0       	ldi	r22, 0x02	; 2
     f60:	0e 94 e4 01 	call	0x3c8	; 0x3c8 <EF_S8_DIO_ClearPin>
     f64:	83 e4       	ldi	r24, 0x43	; 67
     f66:	63 e0       	ldi	r22, 0x03	; 3
     f68:	0e 94 9b 01 	call	0x336	; 0x336 <EF_S8_DIO_SetPin>
     f6c:	81 e4       	ldi	r24, 0x41	; 65
     f6e:	65 e0       	ldi	r22, 0x05	; 5
     f70:	0e 94 9b 01 	call	0x336	; 0x336 <EF_S8_DIO_SetPin>
     f74:	81 e4       	ldi	r24, 0x41	; 65
     f76:	64 e0       	ldi	r22, 0x04	; 4
     f78:	0e 94 9b 01 	call	0x336	; 0x336 <EF_S8_DIO_SetPin>
     f7c:	28 b3       	in	r18, 0x18	; 24
     f7e:	ce 01       	movw	r24, r28
     f80:	68 ee       	ldi	r22, 0xE8	; 232
     f82:	73 e0       	ldi	r23, 0x03	; 3
     f84:	0e 94 bb 1a 	call	0x3576	; 0x3576 <__udivmodhi4>
     f88:	20 7f       	andi	r18, 0xF0	; 240
     f8a:	26 2b       	or	r18, r22
     f8c:	28 bb       	out	0x18, r18	; 24
     f8e:	80 e1       	ldi	r24, 0x10	; 16
     f90:	97 e2       	ldi	r25, 0x27	; 39
     f92:	01 97       	sbiw	r24, 0x01	; 1
     f94:	f1 f7       	brne	.-4      	; 0xf92 <EF_void_Segment_Display+0x64>
     f96:	03 c0       	rjmp	.+6      	; 0xf9e <EF_void_Segment_Display+0x70>
     f98:	c4 36       	cpi	r28, 0x64	; 100
     f9a:	d1 05       	cpc	r29, r1
     f9c:	f0 f0       	brcs	.+60     	; 0xfda <EF_void_Segment_Display+0xac>
     f9e:	83 e4       	ldi	r24, 0x43	; 67
     fa0:	63 e0       	ldi	r22, 0x03	; 3
     fa2:	0e 94 e4 01 	call	0x3c8	; 0x3c8 <EF_S8_DIO_ClearPin>
     fa6:	82 e4       	ldi	r24, 0x42	; 66
     fa8:	62 e0       	ldi	r22, 0x02	; 2
     faa:	0e 94 9b 01 	call	0x336	; 0x336 <EF_S8_DIO_SetPin>
     fae:	81 e4       	ldi	r24, 0x41	; 65
     fb0:	65 e0       	ldi	r22, 0x05	; 5
     fb2:	0e 94 9b 01 	call	0x336	; 0x336 <EF_S8_DIO_SetPin>
     fb6:	81 e4       	ldi	r24, 0x41	; 65
     fb8:	64 e0       	ldi	r22, 0x04	; 4
     fba:	0e 94 9b 01 	call	0x336	; 0x336 <EF_S8_DIO_SetPin>
     fbe:	28 b3       	in	r18, 0x18	; 24
     fc0:	81 2f       	mov	r24, r17
     fc2:	90 2f       	mov	r25, r16
     fc4:	64 e6       	ldi	r22, 0x64	; 100
     fc6:	70 e0       	ldi	r23, 0x00	; 0
     fc8:	0e 94 bb 1a 	call	0x3576	; 0x3576 <__udivmodhi4>
     fcc:	20 7f       	andi	r18, 0xF0	; 240
     fce:	26 2b       	or	r18, r22
     fd0:	28 bb       	out	0x18, r18	; 24
     fd2:	80 e1       	ldi	r24, 0x10	; 16
     fd4:	97 e2       	ldi	r25, 0x27	; 39
     fd6:	01 97       	sbiw	r24, 0x01	; 1
     fd8:	f1 f7       	brne	.-4      	; 0xfd6 <EF_void_Segment_Display+0xa8>
     fda:	2a 97       	sbiw	r28, 0x0a	; 10
     fdc:	f0 f0       	brcs	.+60     	; 0x101a <EF_void_Segment_Display+0xec>
     fde:	81 e4       	ldi	r24, 0x41	; 65
     fe0:	64 e0       	ldi	r22, 0x04	; 4
     fe2:	0e 94 e4 01 	call	0x3c8	; 0x3c8 <EF_S8_DIO_ClearPin>
     fe6:	81 e4       	ldi	r24, 0x41	; 65
     fe8:	65 e0       	ldi	r22, 0x05	; 5
     fea:	0e 94 9b 01 	call	0x336	; 0x336 <EF_S8_DIO_SetPin>
     fee:	82 e4       	ldi	r24, 0x42	; 66
     ff0:	62 e0       	ldi	r22, 0x02	; 2
     ff2:	0e 94 9b 01 	call	0x336	; 0x336 <EF_S8_DIO_SetPin>
     ff6:	83 e4       	ldi	r24, 0x43	; 67
     ff8:	63 e0       	ldi	r22, 0x03	; 3
     ffa:	0e 94 9b 01 	call	0x336	; 0x336 <EF_S8_DIO_SetPin>
     ffe:	28 b3       	in	r18, 0x18	; 24
    1000:	8f 2d       	mov	r24, r15
    1002:	9e 2d       	mov	r25, r14
    1004:	6a e0       	ldi	r22, 0x0A	; 10
    1006:	70 e0       	ldi	r23, 0x00	; 0
    1008:	0e 94 bb 1a 	call	0x3576	; 0x3576 <__udivmodhi4>
    100c:	20 7f       	andi	r18, 0xF0	; 240
    100e:	26 2b       	or	r18, r22
    1010:	28 bb       	out	0x18, r18	; 24
    1012:	80 e1       	ldi	r24, 0x10	; 16
    1014:	97 e2       	ldi	r25, 0x27	; 39
    1016:	01 97       	sbiw	r24, 0x01	; 1
    1018:	f1 f7       	brne	.-4      	; 0x1016 <EF_void_Segment_Display+0xe8>
    101a:	81 e4       	ldi	r24, 0x41	; 65
    101c:	65 e0       	ldi	r22, 0x05	; 5
    101e:	0e 94 e4 01 	call	0x3c8	; 0x3c8 <EF_S8_DIO_ClearPin>
    1022:	81 e4       	ldi	r24, 0x41	; 65
    1024:	64 e0       	ldi	r22, 0x04	; 4
    1026:	0e 94 9b 01 	call	0x336	; 0x336 <EF_S8_DIO_SetPin>
    102a:	83 e4       	ldi	r24, 0x43	; 67
    102c:	63 e0       	ldi	r22, 0x03	; 3
    102e:	0e 94 9b 01 	call	0x336	; 0x336 <EF_S8_DIO_SetPin>
    1032:	82 e4       	ldi	r24, 0x42	; 66
    1034:	62 e0       	ldi	r22, 0x02	; 2
    1036:	0e 94 9b 01 	call	0x336	; 0x336 <EF_S8_DIO_SetPin>
    103a:	28 b3       	in	r18, 0x18	; 24
    103c:	8f 2d       	mov	r24, r15
    103e:	9e 2d       	mov	r25, r14
    1040:	6a e0       	ldi	r22, 0x0A	; 10
    1042:	70 e0       	ldi	r23, 0x00	; 0
    1044:	0e 94 bb 1a 	call	0x3576	; 0x3576 <__udivmodhi4>
    1048:	20 7f       	andi	r18, 0xF0	; 240
    104a:	28 2b       	or	r18, r24
    104c:	28 bb       	out	0x18, r18	; 24
    104e:	80 e1       	ldi	r24, 0x10	; 16
    1050:	97 e2       	ldi	r25, 0x27	; 39
    1052:	01 97       	sbiw	r24, 0x01	; 1
    1054:	f1 f7       	brne	.-4      	; 0x1052 <EF_void_Segment_Display+0x124>
    1056:	df 91       	pop	r29
    1058:	cf 91       	pop	r28
    105a:	1f 91       	pop	r17
    105c:	0f 91       	pop	r16
    105e:	ff 90       	pop	r15
    1060:	ef 90       	pop	r14
    1062:	08 95       	ret

00001064 <EF_void_Segment_Init>:
    1064:	82 e4       	ldi	r24, 0x42	; 66
    1066:	60 e0       	ldi	r22, 0x00	; 0
    1068:	41 e0       	ldi	r20, 0x01	; 1
    106a:	0e 94 0a 01 	call	0x214	; 0x214 <EF_B_DIO_InitPin>
    106e:	82 e4       	ldi	r24, 0x42	; 66
    1070:	61 e0       	ldi	r22, 0x01	; 1
    1072:	41 e0       	ldi	r20, 0x01	; 1
    1074:	0e 94 0a 01 	call	0x214	; 0x214 <EF_B_DIO_InitPin>
    1078:	82 e4       	ldi	r24, 0x42	; 66
    107a:	62 e0       	ldi	r22, 0x02	; 2
    107c:	41 e0       	ldi	r20, 0x01	; 1
    107e:	0e 94 0a 01 	call	0x214	; 0x214 <EF_B_DIO_InitPin>
    1082:	82 e4       	ldi	r24, 0x42	; 66
    1084:	63 e0       	ldi	r22, 0x03	; 3
    1086:	41 e0       	ldi	r20, 0x01	; 1
    1088:	0e 94 0a 01 	call	0x214	; 0x214 <EF_B_DIO_InitPin>
    108c:	83 e4       	ldi	r24, 0x43	; 67
    108e:	65 e0       	ldi	r22, 0x05	; 5
    1090:	41 e0       	ldi	r20, 0x01	; 1
    1092:	0e 94 0a 01 	call	0x214	; 0x214 <EF_B_DIO_InitPin>
    1096:	83 e4       	ldi	r24, 0x43	; 67
    1098:	64 e0       	ldi	r22, 0x04	; 4
    109a:	41 e0       	ldi	r20, 0x01	; 1
    109c:	0e 94 0a 01 	call	0x214	; 0x214 <EF_B_DIO_InitPin>
    10a0:	83 e4       	ldi	r24, 0x43	; 67
    10a2:	62 e0       	ldi	r22, 0x02	; 2
    10a4:	41 e0       	ldi	r20, 0x01	; 1
    10a6:	0e 94 0a 01 	call	0x214	; 0x214 <EF_B_DIO_InitPin>
    10aa:	83 e4       	ldi	r24, 0x43	; 67
    10ac:	63 e0       	ldi	r22, 0x03	; 3
    10ae:	41 e0       	ldi	r20, 0x01	; 1
    10b0:	0e 94 0a 01 	call	0x214	; 0x214 <EF_B_DIO_InitPin>
    10b4:	08 95       	ret

000010b6 <DecToBcdConvert>:
    10b6:	28 2f       	mov	r18, r24
    10b8:	6a e0       	ldi	r22, 0x0A	; 10
    10ba:	0e 94 af 1a 	call	0x355e	; 0x355e <__udivmodqi4>
    10be:	96 e0       	ldi	r25, 0x06	; 6
    10c0:	89 9f       	mul	r24, r25
    10c2:	c0 01       	movw	r24, r0
    10c4:	11 24       	eor	r1, r1
    10c6:	82 0f       	add	r24, r18
    10c8:	08 95       	ret

000010ca <LCD_update_time>:
    10ca:	df 92       	push	r13
    10cc:	ef 92       	push	r14
    10ce:	ff 92       	push	r15
    10d0:	0f 93       	push	r16
    10d2:	1f 93       	push	r17
    10d4:	df 93       	push	r29
    10d6:	cf 93       	push	r28
    10d8:	00 d0       	rcall	.+0      	; 0x10da <LCD_update_time+0x10>
    10da:	cd b7       	in	r28, 0x3d	; 61
    10dc:	de b7       	in	r29, 0x3e	; 62
    10de:	f8 2e       	mov	r15, r24
    10e0:	e6 2e       	mov	r14, r22
    10e2:	d4 2e       	mov	r13, r20
    10e4:	6a e0       	ldi	r22, 0x0A	; 10
    10e6:	0e 94 af 1a 	call	0x355e	; 0x355e <__udivmodqi4>
    10ea:	90 e0       	ldi	r25, 0x00	; 0
    10ec:	8e 01       	movw	r16, r28
    10ee:	0f 5f       	subi	r16, 0xFF	; 255
    10f0:	1f 4f       	sbci	r17, 0xFF	; 255
    10f2:	b8 01       	movw	r22, r16
    10f4:	4a e0       	ldi	r20, 0x0A	; 10
    10f6:	50 e0       	ldi	r21, 0x00	; 0
    10f8:	0e 94 04 1b 	call	0x3608	; 0x3608 <itoa>
    10fc:	c8 01       	movw	r24, r16
    10fe:	0e 94 17 17 	call	0x2e2e	; 0x2e2e <EF_void_LCD_print>
    1102:	8f 2d       	mov	r24, r15
    1104:	6a e0       	ldi	r22, 0x0A	; 10
    1106:	0e 94 af 1a 	call	0x355e	; 0x355e <__udivmodqi4>
    110a:	89 2f       	mov	r24, r25
    110c:	90 e0       	ldi	r25, 0x00	; 0
    110e:	b8 01       	movw	r22, r16
    1110:	4a e0       	ldi	r20, 0x0A	; 10
    1112:	50 e0       	ldi	r21, 0x00	; 0
    1114:	0e 94 04 1b 	call	0x3608	; 0x3608 <itoa>
    1118:	c8 01       	movw	r24, r16
    111a:	0e 94 17 17 	call	0x2e2e	; 0x2e2e <EF_void_LCD_print>
    111e:	8a e3       	ldi	r24, 0x3A	; 58
    1120:	90 e0       	ldi	r25, 0x00	; 0
    1122:	0e 94 ce 16 	call	0x2d9c	; 0x2d9c <EF_void_LCD_send_data>
    1126:	8e 2d       	mov	r24, r14
    1128:	6a e0       	ldi	r22, 0x0A	; 10
    112a:	0e 94 af 1a 	call	0x355e	; 0x355e <__udivmodqi4>
    112e:	90 e0       	ldi	r25, 0x00	; 0
    1130:	b8 01       	movw	r22, r16
    1132:	4a e0       	ldi	r20, 0x0A	; 10
    1134:	50 e0       	ldi	r21, 0x00	; 0
    1136:	0e 94 04 1b 	call	0x3608	; 0x3608 <itoa>
    113a:	c8 01       	movw	r24, r16
    113c:	0e 94 17 17 	call	0x2e2e	; 0x2e2e <EF_void_LCD_print>
    1140:	8e 2d       	mov	r24, r14
    1142:	6a e0       	ldi	r22, 0x0A	; 10
    1144:	0e 94 af 1a 	call	0x355e	; 0x355e <__udivmodqi4>
    1148:	89 2f       	mov	r24, r25
    114a:	90 e0       	ldi	r25, 0x00	; 0
    114c:	b8 01       	movw	r22, r16
    114e:	4a e0       	ldi	r20, 0x0A	; 10
    1150:	50 e0       	ldi	r21, 0x00	; 0
    1152:	0e 94 04 1b 	call	0x3608	; 0x3608 <itoa>
    1156:	c8 01       	movw	r24, r16
    1158:	0e 94 17 17 	call	0x2e2e	; 0x2e2e <EF_void_LCD_print>
    115c:	8a e3       	ldi	r24, 0x3A	; 58
    115e:	90 e0       	ldi	r25, 0x00	; 0
    1160:	0e 94 ce 16 	call	0x2d9c	; 0x2d9c <EF_void_LCD_send_data>
    1164:	8d 2d       	mov	r24, r13
    1166:	6a e0       	ldi	r22, 0x0A	; 10
    1168:	0e 94 af 1a 	call	0x355e	; 0x355e <__udivmodqi4>
    116c:	90 e0       	ldi	r25, 0x00	; 0
    116e:	b8 01       	movw	r22, r16
    1170:	4a e0       	ldi	r20, 0x0A	; 10
    1172:	50 e0       	ldi	r21, 0x00	; 0
    1174:	0e 94 04 1b 	call	0x3608	; 0x3608 <itoa>
    1178:	c8 01       	movw	r24, r16
    117a:	0e 94 17 17 	call	0x2e2e	; 0x2e2e <EF_void_LCD_print>
    117e:	8d 2d       	mov	r24, r13
    1180:	6a e0       	ldi	r22, 0x0A	; 10
    1182:	0e 94 af 1a 	call	0x355e	; 0x355e <__udivmodqi4>
    1186:	89 2f       	mov	r24, r25
    1188:	90 e0       	ldi	r25, 0x00	; 0
    118a:	b8 01       	movw	r22, r16
    118c:	4a e0       	ldi	r20, 0x0A	; 10
    118e:	50 e0       	ldi	r21, 0x00	; 0
    1190:	0e 94 04 1b 	call	0x3608	; 0x3608 <itoa>
    1194:	c8 01       	movw	r24, r16
    1196:	0e 94 17 17 	call	0x2e2e	; 0x2e2e <EF_void_LCD_print>
    119a:	0f 90       	pop	r0
    119c:	0f 90       	pop	r0
    119e:	cf 91       	pop	r28
    11a0:	df 91       	pop	r29
    11a2:	1f 91       	pop	r17
    11a4:	0f 91       	pop	r16
    11a6:	ff 90       	pop	r15
    11a8:	ef 90       	pop	r14
    11aa:	df 90       	pop	r13
    11ac:	08 95       	ret

000011ae <EF_void_DS1307_SetDate>:
    11ae:	ef 92       	push	r14
    11b0:	ff 92       	push	r15
    11b2:	0f 93       	push	r16
    11b4:	1f 93       	push	r17
    11b6:	16 2f       	mov	r17, r22
    11b8:	04 2f       	mov	r16, r20
    11ba:	0e 94 5b 08 	call	0x10b6	; 0x10b6 <DecToBcdConvert>
    11be:	e8 2e       	mov	r14, r24
    11c0:	81 2f       	mov	r24, r17
    11c2:	0e 94 5b 08 	call	0x10b6	; 0x10b6 <DecToBcdConvert>
    11c6:	f8 2e       	mov	r15, r24
    11c8:	80 2f       	mov	r24, r16
    11ca:	0e 94 5b 08 	call	0x10b6	; 0x10b6 <DecToBcdConvert>
    11ce:	18 2f       	mov	r17, r24
    11d0:	0e 94 5f 03 	call	0x6be	; 0x6be <EF_void_I2C_Start>
    11d4:	80 ed       	ldi	r24, 0xD0	; 208
    11d6:	0e 94 58 03 	call	0x6b0	; 0x6b0 <EF_void_I2C_Write>
    11da:	84 e0       	ldi	r24, 0x04	; 4
    11dc:	0e 94 58 03 	call	0x6b0	; 0x6b0 <EF_void_I2C_Write>
    11e0:	8e 2d       	mov	r24, r14
    11e2:	0e 94 58 03 	call	0x6b0	; 0x6b0 <EF_void_I2C_Write>
    11e6:	8f 2d       	mov	r24, r15
    11e8:	0e 94 58 03 	call	0x6b0	; 0x6b0 <EF_void_I2C_Write>
    11ec:	81 2f       	mov	r24, r17
    11ee:	0e 94 58 03 	call	0x6b0	; 0x6b0 <EF_void_I2C_Write>
    11f2:	0e 94 65 03 	call	0x6ca	; 0x6ca <EF_void_I2C_Stop>
    11f6:	1f 91       	pop	r17
    11f8:	0f 91       	pop	r16
    11fa:	ff 90       	pop	r15
    11fc:	ef 90       	pop	r14
    11fe:	08 95       	ret

00001200 <EF_void_DS1307_SetTime>:
    1200:	ef 92       	push	r14
    1202:	ff 92       	push	r15
    1204:	0f 93       	push	r16
    1206:	1f 93       	push	r17
    1208:	16 2f       	mov	r17, r22
    120a:	04 2f       	mov	r16, r20
    120c:	0e 94 5b 08 	call	0x10b6	; 0x10b6 <DecToBcdConvert>
    1210:	e8 2e       	mov	r14, r24
    1212:	81 2f       	mov	r24, r17
    1214:	0e 94 5b 08 	call	0x10b6	; 0x10b6 <DecToBcdConvert>
    1218:	f8 2e       	mov	r15, r24
    121a:	80 2f       	mov	r24, r16
    121c:	0e 94 5b 08 	call	0x10b6	; 0x10b6 <DecToBcdConvert>
    1220:	18 2f       	mov	r17, r24
    1222:	0e 94 5f 03 	call	0x6be	; 0x6be <EF_void_I2C_Start>
    1226:	80 ed       	ldi	r24, 0xD0	; 208
    1228:	0e 94 58 03 	call	0x6b0	; 0x6b0 <EF_void_I2C_Write>
    122c:	80 e0       	ldi	r24, 0x00	; 0
    122e:	0e 94 58 03 	call	0x6b0	; 0x6b0 <EF_void_I2C_Write>
    1232:	81 2f       	mov	r24, r17
    1234:	0e 94 58 03 	call	0x6b0	; 0x6b0 <EF_void_I2C_Write>
    1238:	8f 2d       	mov	r24, r15
    123a:	0e 94 58 03 	call	0x6b0	; 0x6b0 <EF_void_I2C_Write>
    123e:	8e 2d       	mov	r24, r14
    1240:	0e 94 58 03 	call	0x6b0	; 0x6b0 <EF_void_I2C_Write>
    1244:	0e 94 65 03 	call	0x6ca	; 0x6ca <EF_void_I2C_Stop>
    1248:	1f 91       	pop	r17
    124a:	0f 91       	pop	r16
    124c:	ff 90       	pop	r15
    124e:	ef 90       	pop	r14
    1250:	08 95       	ret

00001252 <EF_void_DS1307_GetDate>:
    1252:	af 92       	push	r10
    1254:	bf 92       	push	r11
    1256:	cf 92       	push	r12
    1258:	df 92       	push	r13
    125a:	ef 92       	push	r14
    125c:	ff 92       	push	r15
    125e:	0f 93       	push	r16
    1260:	1f 93       	push	r17
    1262:	7c 01       	movw	r14, r24
    1264:	6b 01       	movw	r12, r22
    1266:	5a 01       	movw	r10, r20
    1268:	0e 94 5f 03 	call	0x6be	; 0x6be <EF_void_I2C_Start>
    126c:	80 ed       	ldi	r24, 0xD0	; 208
    126e:	0e 94 58 03 	call	0x6b0	; 0x6b0 <EF_void_I2C_Write>
    1272:	84 e0       	ldi	r24, 0x04	; 4
    1274:	0e 94 58 03 	call	0x6b0	; 0x6b0 <EF_void_I2C_Write>
    1278:	0e 94 65 03 	call	0x6ca	; 0x6ca <EF_void_I2C_Stop>
    127c:	0e 94 5f 03 	call	0x6be	; 0x6be <EF_void_I2C_Start>
    1280:	81 ed       	ldi	r24, 0xD1	; 209
    1282:	0e 94 58 03 	call	0x6b0	; 0x6b0 <EF_void_I2C_Write>
    1286:	81 e0       	ldi	r24, 0x01	; 1
    1288:	0e 94 6e 03 	call	0x6dc	; 0x6dc <EF_U8_I2C_Read_Byte>
    128c:	18 2f       	mov	r17, r24
    128e:	81 e0       	ldi	r24, 0x01	; 1
    1290:	0e 94 6e 03 	call	0x6dc	; 0x6dc <EF_U8_I2C_Read_Byte>
    1294:	08 2f       	mov	r16, r24
    1296:	80 e0       	ldi	r24, 0x00	; 0
    1298:	0e 94 6e 03 	call	0x6dc	; 0x6dc <EF_U8_I2C_Read_Byte>
    129c:	91 2f       	mov	r25, r17
    129e:	92 95       	swap	r25
    12a0:	9f 70       	andi	r25, 0x0F	; 15
    12a2:	2a ef       	ldi	r18, 0xFA	; 250
    12a4:	3f ef       	ldi	r19, 0xFF	; 255
    12a6:	92 9f       	mul	r25, r18
    12a8:	90 2d       	mov	r25, r0
    12aa:	11 24       	eor	r1, r1
    12ac:	91 0f       	add	r25, r17
    12ae:	f7 01       	movw	r30, r14
    12b0:	90 83       	st	Z, r25
    12b2:	90 2f       	mov	r25, r16
    12b4:	92 95       	swap	r25
    12b6:	9f 70       	andi	r25, 0x0F	; 15
    12b8:	92 9f       	mul	r25, r18
    12ba:	90 2d       	mov	r25, r0
    12bc:	11 24       	eor	r1, r1
    12be:	90 0f       	add	r25, r16
    12c0:	f6 01       	movw	r30, r12
    12c2:	90 83       	st	Z, r25
    12c4:	98 2f       	mov	r25, r24
    12c6:	92 95       	swap	r25
    12c8:	9f 70       	andi	r25, 0x0F	; 15
    12ca:	92 9f       	mul	r25, r18
    12cc:	90 2d       	mov	r25, r0
    12ce:	11 24       	eor	r1, r1
    12d0:	98 0f       	add	r25, r24
    12d2:	f5 01       	movw	r30, r10
    12d4:	90 83       	st	Z, r25
    12d6:	0e 94 65 03 	call	0x6ca	; 0x6ca <EF_void_I2C_Stop>
    12da:	1f 91       	pop	r17
    12dc:	0f 91       	pop	r16
    12de:	ff 90       	pop	r15
    12e0:	ef 90       	pop	r14
    12e2:	df 90       	pop	r13
    12e4:	cf 90       	pop	r12
    12e6:	bf 90       	pop	r11
    12e8:	af 90       	pop	r10
    12ea:	08 95       	ret

000012ec <EF_void_DS1307_GetTime>:
    12ec:	af 92       	push	r10
    12ee:	bf 92       	push	r11
    12f0:	cf 92       	push	r12
    12f2:	df 92       	push	r13
    12f4:	ef 92       	push	r14
    12f6:	ff 92       	push	r15
    12f8:	0f 93       	push	r16
    12fa:	1f 93       	push	r17
    12fc:	5c 01       	movw	r10, r24
    12fe:	6b 01       	movw	r12, r22
    1300:	7a 01       	movw	r14, r20
    1302:	0e 94 5f 03 	call	0x6be	; 0x6be <EF_void_I2C_Start>
    1306:	80 ed       	ldi	r24, 0xD0	; 208
    1308:	0e 94 58 03 	call	0x6b0	; 0x6b0 <EF_void_I2C_Write>
    130c:	80 e0       	ldi	r24, 0x00	; 0
    130e:	0e 94 58 03 	call	0x6b0	; 0x6b0 <EF_void_I2C_Write>
    1312:	0e 94 65 03 	call	0x6ca	; 0x6ca <EF_void_I2C_Stop>
    1316:	0e 94 5f 03 	call	0x6be	; 0x6be <EF_void_I2C_Start>
    131a:	81 ed       	ldi	r24, 0xD1	; 209
    131c:	0e 94 58 03 	call	0x6b0	; 0x6b0 <EF_void_I2C_Write>
    1320:	81 e0       	ldi	r24, 0x01	; 1
    1322:	0e 94 6e 03 	call	0x6dc	; 0x6dc <EF_U8_I2C_Read_Byte>
    1326:	18 2f       	mov	r17, r24
    1328:	81 e0       	ldi	r24, 0x01	; 1
    132a:	0e 94 6e 03 	call	0x6dc	; 0x6dc <EF_U8_I2C_Read_Byte>
    132e:	08 2f       	mov	r16, r24
    1330:	80 e0       	ldi	r24, 0x00	; 0
    1332:	0e 94 6e 03 	call	0x6dc	; 0x6dc <EF_U8_I2C_Read_Byte>
    1336:	91 2f       	mov	r25, r17
    1338:	92 95       	swap	r25
    133a:	9f 70       	andi	r25, 0x0F	; 15
    133c:	2a ef       	ldi	r18, 0xFA	; 250
    133e:	3f ef       	ldi	r19, 0xFF	; 255
    1340:	92 9f       	mul	r25, r18
    1342:	90 2d       	mov	r25, r0
    1344:	11 24       	eor	r1, r1
    1346:	91 0f       	add	r25, r17
    1348:	f7 01       	movw	r30, r14
    134a:	90 83       	st	Z, r25
    134c:	90 2f       	mov	r25, r16
    134e:	92 95       	swap	r25
    1350:	9f 70       	andi	r25, 0x0F	; 15
    1352:	92 9f       	mul	r25, r18
    1354:	90 2d       	mov	r25, r0
    1356:	11 24       	eor	r1, r1
    1358:	90 0f       	add	r25, r16
    135a:	f6 01       	movw	r30, r12
    135c:	90 83       	st	Z, r25
    135e:	98 2f       	mov	r25, r24
    1360:	92 95       	swap	r25
    1362:	9f 70       	andi	r25, 0x0F	; 15
    1364:	92 9f       	mul	r25, r18
    1366:	90 2d       	mov	r25, r0
    1368:	11 24       	eor	r1, r1
    136a:	98 0f       	add	r25, r24
    136c:	f5 01       	movw	r30, r10
    136e:	90 83       	st	Z, r25
    1370:	0e 94 65 03 	call	0x6ca	; 0x6ca <EF_void_I2C_Stop>
    1374:	1f 91       	pop	r17
    1376:	0f 91       	pop	r16
    1378:	ff 90       	pop	r15
    137a:	ef 90       	pop	r14
    137c:	df 90       	pop	r13
    137e:	cf 90       	pop	r12
    1380:	bf 90       	pop	r11
    1382:	af 90       	pop	r10
    1384:	08 95       	ret

00001386 <EF_void_DS1307_Init>:
    1386:	0e 94 68 03 	call	0x6d0	; 0x6d0 <EF_void_I2C_Init>
    138a:	0e 94 5f 03 	call	0x6be	; 0x6be <EF_void_I2C_Start>
    138e:	80 ed       	ldi	r24, 0xD0	; 208
    1390:	0e 94 58 03 	call	0x6b0	; 0x6b0 <EF_void_I2C_Write>
    1394:	87 e0       	ldi	r24, 0x07	; 7
    1396:	0e 94 58 03 	call	0x6b0	; 0x6b0 <EF_void_I2C_Write>
    139a:	80 e0       	ldi	r24, 0x00	; 0
    139c:	0e 94 58 03 	call	0x6b0	; 0x6b0 <EF_void_I2C_Write>
    13a0:	0e 94 65 03 	call	0x6ca	; 0x6ca <EF_void_I2C_Stop>
    13a4:	88 ec       	ldi	r24, 0xC8	; 200
    13a6:	90 e0       	ldi	r25, 0x00	; 0
    13a8:	01 97       	sbiw	r24, 0x01	; 1
    13aa:	f1 f7       	brne	.-4      	; 0x13a8 <EF_void_DS1307_Init+0x22>
    13ac:	08 95       	ret

000013ae <EF_void_EEPROM24C16_Read_Byte>:
    13ae:	0f 93       	push	r16
    13b0:	1f 93       	push	r17
    13b2:	08 2f       	mov	r16, r24
    13b4:	16 2f       	mov	r17, r22
    13b6:	0e 94 5f 03 	call	0x6be	; 0x6be <EF_void_I2C_Start>
    13ba:	81 2f       	mov	r24, r17
    13bc:	0e 94 58 03 	call	0x6b0	; 0x6b0 <EF_void_I2C_Write>
    13c0:	80 2f       	mov	r24, r16
    13c2:	0e 94 58 03 	call	0x6b0	; 0x6b0 <EF_void_I2C_Write>
    13c6:	0e 94 5f 03 	call	0x6be	; 0x6be <EF_void_I2C_Start>
    13ca:	81 2f       	mov	r24, r17
    13cc:	81 60       	ori	r24, 0x01	; 1
    13ce:	0e 94 58 03 	call	0x6b0	; 0x6b0 <EF_void_I2C_Write>
    13d2:	80 e0       	ldi	r24, 0x00	; 0
    13d4:	0e 94 6e 03 	call	0x6dc	; 0x6dc <EF_U8_I2C_Read_Byte>
    13d8:	18 2f       	mov	r17, r24
    13da:	0e 94 65 03 	call	0x6ca	; 0x6ca <EF_void_I2C_Stop>
    13de:	81 2f       	mov	r24, r17
    13e0:	1f 91       	pop	r17
    13e2:	0f 91       	pop	r16
    13e4:	08 95       	ret

000013e6 <EF_void_EEPROM24C16_Write_Byte>:
    13e6:	ff 92       	push	r15
    13e8:	0f 93       	push	r16
    13ea:	1f 93       	push	r17
    13ec:	18 2f       	mov	r17, r24
    13ee:	06 2f       	mov	r16, r22
    13f0:	f4 2e       	mov	r15, r20
    13f2:	0e 94 5f 03 	call	0x6be	; 0x6be <EF_void_I2C_Start>
    13f6:	80 2f       	mov	r24, r16
    13f8:	0e 94 58 03 	call	0x6b0	; 0x6b0 <EF_void_I2C_Write>
    13fc:	81 2f       	mov	r24, r17
    13fe:	0e 94 58 03 	call	0x6b0	; 0x6b0 <EF_void_I2C_Write>
    1402:	8f 2d       	mov	r24, r15
    1404:	0e 94 58 03 	call	0x6b0	; 0x6b0 <EF_void_I2C_Write>
    1408:	0e 94 65 03 	call	0x6ca	; 0x6ca <EF_void_I2C_Stop>
    140c:	80 e3       	ldi	r24, 0x30	; 48
    140e:	95 e7       	ldi	r25, 0x75	; 117
    1410:	01 97       	sbiw	r24, 0x01	; 1
    1412:	f1 f7       	brne	.-4      	; 0x1410 <EF_void_EEPROM24C16_Write_Byte+0x2a>
    1414:	1f 91       	pop	r17
    1416:	0f 91       	pop	r16
    1418:	ff 90       	pop	r15
    141a:	08 95       	ret

0000141c <EF_void_EEPROM24C16_Init>:
    141c:	0e 94 68 03 	call	0x6d0	; 0x6d0 <EF_void_I2C_Init>
    1420:	08 95       	ret

00001422 <EF_u8_EEPROM24C64_Read_Byte>:
    1422:	df 92       	push	r13
    1424:	ef 92       	push	r14
    1426:	ff 92       	push	r15
    1428:	0f 93       	push	r16
    142a:	1f 93       	push	r17
    142c:	df 93       	push	r29
    142e:	cf 93       	push	r28
    1430:	0f 92       	push	r0
    1432:	cd b7       	in	r28, 0x3d	; 61
    1434:	de b7       	in	r29, 0x3e	; 62
    1436:	d8 2e       	mov	r13, r24
    1438:	8b 01       	movw	r16, r22
    143a:	7a 01       	movw	r14, r20
    143c:	81 e0       	ldi	r24, 0x01	; 1
    143e:	89 83       	std	Y+1, r24	; 0x01
    1440:	80 e2       	ldi	r24, 0x20	; 32
    1442:	60 30       	cpi	r22, 0x00	; 0
    1444:	78 07       	cpc	r23, r24
    1446:	08 f0       	brcs	.+2      	; 0x144a <EF_u8_EEPROM24C64_Read_Byte+0x28>
    1448:	19 82       	std	Y+1, r1	; 0x01
    144a:	0e 94 5f 03 	call	0x6be	; 0x6be <EF_void_I2C_Start>
    144e:	8d 2d       	mov	r24, r13
    1450:	0e 94 58 03 	call	0x6b0	; 0x6b0 <EF_void_I2C_Write>
    1454:	81 2f       	mov	r24, r17
    1456:	0e 94 58 03 	call	0x6b0	; 0x6b0 <EF_void_I2C_Write>
    145a:	80 2f       	mov	r24, r16
    145c:	0e 94 58 03 	call	0x6b0	; 0x6b0 <EF_void_I2C_Write>
    1460:	0e 94 5f 03 	call	0x6be	; 0x6be <EF_void_I2C_Start>
    1464:	8d 2d       	mov	r24, r13
    1466:	81 60       	ori	r24, 0x01	; 1
    1468:	0e 94 58 03 	call	0x6b0	; 0x6b0 <EF_void_I2C_Write>
    146c:	80 e0       	ldi	r24, 0x00	; 0
    146e:	0e 94 6e 03 	call	0x6dc	; 0x6dc <EF_U8_I2C_Read_Byte>
    1472:	f7 01       	movw	r30, r14
    1474:	80 83       	st	Z, r24
    1476:	0e 94 65 03 	call	0x6ca	; 0x6ca <EF_void_I2C_Stop>
    147a:	89 81       	ldd	r24, Y+1	; 0x01
    147c:	0f 90       	pop	r0
    147e:	cf 91       	pop	r28
    1480:	df 91       	pop	r29
    1482:	1f 91       	pop	r17
    1484:	0f 91       	pop	r16
    1486:	ff 90       	pop	r15
    1488:	ef 90       	pop	r14
    148a:	df 90       	pop	r13
    148c:	08 95       	ret

0000148e <EF_u8_EEPROM24C64_Write_Byte>:
    148e:	ef 92       	push	r14
    1490:	ff 92       	push	r15
    1492:	0f 93       	push	r16
    1494:	1f 93       	push	r17
    1496:	df 93       	push	r29
    1498:	cf 93       	push	r28
    149a:	0f 92       	push	r0
    149c:	cd b7       	in	r28, 0x3d	; 61
    149e:	de b7       	in	r29, 0x3e	; 62
    14a0:	f8 2e       	mov	r15, r24
    14a2:	8b 01       	movw	r16, r22
    14a4:	e4 2e       	mov	r14, r20
    14a6:	81 e0       	ldi	r24, 0x01	; 1
    14a8:	89 83       	std	Y+1, r24	; 0x01
    14aa:	80 e2       	ldi	r24, 0x20	; 32
    14ac:	60 30       	cpi	r22, 0x00	; 0
    14ae:	78 07       	cpc	r23, r24
    14b0:	08 f0       	brcs	.+2      	; 0x14b4 <EF_u8_EEPROM24C64_Write_Byte+0x26>
    14b2:	19 82       	std	Y+1, r1	; 0x01
    14b4:	0e 94 5f 03 	call	0x6be	; 0x6be <EF_void_I2C_Start>
    14b8:	8f 2d       	mov	r24, r15
    14ba:	0e 94 58 03 	call	0x6b0	; 0x6b0 <EF_void_I2C_Write>
    14be:	81 2f       	mov	r24, r17
    14c0:	0e 94 58 03 	call	0x6b0	; 0x6b0 <EF_void_I2C_Write>
    14c4:	80 2f       	mov	r24, r16
    14c6:	0e 94 58 03 	call	0x6b0	; 0x6b0 <EF_void_I2C_Write>
    14ca:	8e 2d       	mov	r24, r14
    14cc:	0e 94 58 03 	call	0x6b0	; 0x6b0 <EF_void_I2C_Write>
    14d0:	0e 94 65 03 	call	0x6ca	; 0x6ca <EF_void_I2C_Stop>
    14d4:	80 e4       	ldi	r24, 0x40	; 64
    14d6:	9c e9       	ldi	r25, 0x9C	; 156
    14d8:	01 97       	sbiw	r24, 0x01	; 1
    14da:	f1 f7       	brne	.-4      	; 0x14d8 <EF_u8_EEPROM24C64_Write_Byte+0x4a>
    14dc:	89 81       	ldd	r24, Y+1	; 0x01
    14de:	0f 90       	pop	r0
    14e0:	cf 91       	pop	r28
    14e2:	df 91       	pop	r29
    14e4:	1f 91       	pop	r17
    14e6:	0f 91       	pop	r16
    14e8:	ff 90       	pop	r15
    14ea:	ef 90       	pop	r14
    14ec:	08 95       	ret

000014ee <EF_void_EEPROM24C64_Init>:
    14ee:	0e 94 68 03 	call	0x6d0	; 0x6d0 <EF_void_I2C_Init>
    14f2:	08 95       	ret

000014f4 <EF_Green_Kit_Motor_test>:
    14f4:	0f 93       	push	r16
    14f6:	1f 93       	push	r17
    14f8:	cf 93       	push	r28
    14fa:	df 93       	push	r29
    14fc:	0e 94 e0 05 	call	0xbc0	; 0xbc0 <EF_void_UART_SendNewLine>
    1500:	86 e8       	ldi	r24, 0x86	; 134
    1502:	90 e0       	ldi	r25, 0x00	; 0
    1504:	0e 94 d3 05 	call	0xba6	; 0xba6 <EF_void_UART_SendString>
    1508:	0e 94 e0 05 	call	0xbc0	; 0xbc0 <EF_void_UART_SendNewLine>
    150c:	8b ea       	ldi	r24, 0xAB	; 171
    150e:	90 e0       	ldi	r25, 0x00	; 0
    1510:	0e 94 d3 05 	call	0xba6	; 0xba6 <EF_void_UART_SendString>
    1514:	8e ea       	ldi	r24, 0xAE	; 174
    1516:	90 e0       	ldi	r25, 0x00	; 0
    1518:	0e 94 d3 05 	call	0xba6	; 0xba6 <EF_void_UART_SendString>
    151c:	0e 94 e0 05 	call	0xbc0	; 0xbc0 <EF_void_UART_SendNewLine>
    1520:	0e 94 3d 17 	call	0x2e7a	; 0x2e7a <EF_void_LCD_Clear_Screen>
    1524:	81 e0       	ldi	r24, 0x01	; 1
    1526:	61 e0       	ldi	r22, 0x01	; 1
    1528:	0e 94 f6 16 	call	0x2dec	; 0x2dec <EF_void_LCD_goto>
    152c:	8f eb       	ldi	r24, 0xBF	; 191
    152e:	90 e0       	ldi	r25, 0x00	; 0
    1530:	0e 94 17 17 	call	0x2e2e	; 0x2e2e <EF_void_LCD_print>
    1534:	80 e2       	ldi	r24, 0x20	; 32
    1536:	9e e4       	ldi	r25, 0x4E	; 78
    1538:	28 ec       	ldi	r18, 0xC8	; 200
    153a:	30 e0       	ldi	r19, 0x00	; 0
    153c:	f9 01       	movw	r30, r18
    153e:	31 97       	sbiw	r30, 0x01	; 1
    1540:	f1 f7       	brne	.-4      	; 0x153e <EF_Green_Kit_Motor_test+0x4a>
    1542:	01 97       	sbiw	r24, 0x01	; 1
    1544:	d9 f7       	brne	.-10     	; 0x153c <EF_Green_Kit_Motor_test+0x48>
    1546:	81 e0       	ldi	r24, 0x01	; 1
    1548:	0e 94 37 04 	call	0x86e	; 0x86e <EF_void_PWM_init>
    154c:	83 e6       	ldi	r24, 0x63	; 99
    154e:	62 e0       	ldi	r22, 0x02	; 2
    1550:	41 e0       	ldi	r20, 0x01	; 1
    1552:	0e 94 0a 01 	call	0x214	; 0x214 <EF_B_DIO_InitPin>
    1556:	82 e0       	ldi	r24, 0x02	; 2
    1558:	0e 94 37 04 	call	0x86e	; 0x86e <EF_void_PWM_init>
    155c:	83 e6       	ldi	r24, 0x63	; 99
    155e:	63 e0       	ldi	r22, 0x03	; 3
    1560:	41 e0       	ldi	r20, 0x01	; 1
    1562:	0e 94 0a 01 	call	0x214	; 0x214 <EF_B_DIO_InitPin>
    1566:	c0 e0       	ldi	r28, 0x00	; 0
    1568:	d0 e0       	ldi	r29, 0x00	; 0
    156a:	00 e2       	ldi	r16, 0x20	; 32
    156c:	1e e4       	ldi	r17, 0x4E	; 78
    156e:	8c 2f       	mov	r24, r28
    1570:	61 e0       	ldi	r22, 0x01	; 1
    1572:	0e 94 5f 04 	call	0x8be	; 0x8be <EF_void_PWM_SetDutyValue>
    1576:	83 e6       	ldi	r24, 0x63	; 99
    1578:	62 e0       	ldi	r22, 0x02	; 2
    157a:	0e 94 9b 01 	call	0x336	; 0x336 <EF_S8_DIO_SetPin>
    157e:	8c 2f       	mov	r24, r28
    1580:	62 e0       	ldi	r22, 0x02	; 2
    1582:	0e 94 5f 04 	call	0x8be	; 0x8be <EF_void_PWM_SetDutyValue>
    1586:	83 e6       	ldi	r24, 0x63	; 99
    1588:	63 e0       	ldi	r22, 0x03	; 3
    158a:	0e 94 9b 01 	call	0x336	; 0x336 <EF_S8_DIO_SetPin>
    158e:	c8 01       	movw	r24, r16
    1590:	01 97       	sbiw	r24, 0x01	; 1
    1592:	f1 f7       	brne	.-4      	; 0x1590 <EF_Green_Kit_Motor_test+0x9c>
    1594:	ce 01       	movw	r24, r28
    1596:	62 e3       	ldi	r22, 0x32	; 50
    1598:	70 e0       	ldi	r23, 0x00	; 0
    159a:	0e 94 cf 1a 	call	0x359e	; 0x359e <__divmodhi4>
    159e:	89 2b       	or	r24, r25
    15a0:	21 f4       	brne	.+8      	; 0x15aa <EF_Green_Kit_Motor_test+0xb6>
    15a2:	8d ec       	ldi	r24, 0xCD	; 205
    15a4:	90 e0       	ldi	r25, 0x00	; 0
    15a6:	0e 94 17 17 	call	0x2e2e	; 0x2e2e <EF_void_LCD_print>
    15aa:	21 96       	adiw	r28, 0x01	; 1
    15ac:	c8 3c       	cpi	r28, 0xC8	; 200
    15ae:	d1 05       	cpc	r29, r1
    15b0:	f1 f6       	brne	.-68     	; 0x156e <EF_Green_Kit_Motor_test+0x7a>
    15b2:	0e 94 3d 17 	call	0x2e7a	; 0x2e7a <EF_void_LCD_Clear_Screen>
    15b6:	81 e0       	ldi	r24, 0x01	; 1
    15b8:	61 e0       	ldi	r22, 0x01	; 1
    15ba:	0e 94 f6 16 	call	0x2dec	; 0x2dec <EF_void_LCD_goto>
    15be:	8f ec       	ldi	r24, 0xCF	; 207
    15c0:	90 e0       	ldi	r25, 0x00	; 0
    15c2:	0e 94 17 17 	call	0x2e2e	; 0x2e2e <EF_void_LCD_print>
    15c6:	0e 94 e0 05 	call	0xbc0	; 0xbc0 <EF_void_UART_SendNewLine>
    15ca:	8b ea       	ldi	r24, 0xAB	; 171
    15cc:	90 e0       	ldi	r25, 0x00	; 0
    15ce:	0e 94 d3 05 	call	0xba6	; 0xba6 <EF_void_UART_SendString>
    15d2:	8f ec       	ldi	r24, 0xCF	; 207
    15d4:	90 e0       	ldi	r25, 0x00	; 0
    15d6:	0e 94 d3 05 	call	0xba6	; 0xba6 <EF_void_UART_SendString>
    15da:	0e 94 e0 05 	call	0xbc0	; 0xbc0 <EF_void_UART_SendNewLine>
    15de:	86 e8       	ldi	r24, 0x86	; 134
    15e0:	90 e0       	ldi	r25, 0x00	; 0
    15e2:	0e 94 d3 05 	call	0xba6	; 0xba6 <EF_void_UART_SendString>
    15e6:	0e 94 e0 05 	call	0xbc0	; 0xbc0 <EF_void_UART_SendNewLine>
    15ea:	df 91       	pop	r29
    15ec:	cf 91       	pop	r28
    15ee:	1f 91       	pop	r17
    15f0:	0f 91       	pop	r16
    15f2:	08 95       	ret

000015f4 <EF_Green_Kit_KeyPad_test>:
    15f4:	0f 93       	push	r16
    15f6:	1f 93       	push	r17
    15f8:	0e 94 7b 16 	call	0x2cf6	; 0x2cf6 <EF_void_KeyPad_Init>
    15fc:	0e 94 e0 05 	call	0xbc0	; 0xbc0 <EF_void_UART_SendNewLine>
    1600:	86 e8       	ldi	r24, 0x86	; 134
    1602:	90 e0       	ldi	r25, 0x00	; 0
    1604:	0e 94 d3 05 	call	0xba6	; 0xba6 <EF_void_UART_SendString>
    1608:	0e 94 e0 05 	call	0xbc0	; 0xbc0 <EF_void_UART_SendNewLine>
    160c:	8b ea       	ldi	r24, 0xAB	; 171
    160e:	90 e0       	ldi	r25, 0x00	; 0
    1610:	0e 94 d3 05 	call	0xba6	; 0xba6 <EF_void_UART_SendString>
    1614:	82 ee       	ldi	r24, 0xE2	; 226
    1616:	90 e0       	ldi	r25, 0x00	; 0
    1618:	0e 94 d3 05 	call	0xba6	; 0xba6 <EF_void_UART_SendString>
    161c:	0e 94 e0 05 	call	0xbc0	; 0xbc0 <EF_void_UART_SendNewLine>
    1620:	0e 94 3d 17 	call	0x2e7a	; 0x2e7a <EF_void_LCD_Clear_Screen>
    1624:	81 e0       	ldi	r24, 0x01	; 1
    1626:	61 e0       	ldi	r22, 0x01	; 1
    1628:	0e 94 f6 16 	call	0x2dec	; 0x2dec <EF_void_LCD_goto>
    162c:	84 ef       	ldi	r24, 0xF4	; 244
    162e:	90 e0       	ldi	r25, 0x00	; 0
    1630:	0e 94 17 17 	call	0x2e2e	; 0x2e2e <EF_void_LCD_print>
    1634:	80 e2       	ldi	r24, 0x20	; 32
    1636:	9e e4       	ldi	r25, 0x4E	; 78
    1638:	28 ec       	ldi	r18, 0xC8	; 200
    163a:	30 e0       	ldi	r19, 0x00	; 0
    163c:	f9 01       	movw	r30, r18
    163e:	31 97       	sbiw	r30, 0x01	; 1
    1640:	f1 f7       	brne	.-4      	; 0x163e <EF_Green_Kit_KeyPad_test+0x4a>
    1642:	01 97       	sbiw	r24, 0x01	; 1
    1644:	d9 f7       	brne	.-10     	; 0x163c <EF_Green_Kit_KeyPad_test+0x48>
    1646:	8b ea       	ldi	r24, 0xAB	; 171
    1648:	90 e0       	ldi	r25, 0x00	; 0
    164a:	0e 94 d3 05 	call	0xba6	; 0xba6 <EF_void_UART_SendString>
    164e:	83 e0       	ldi	r24, 0x03	; 3
    1650:	91 e0       	ldi	r25, 0x01	; 1
    1652:	0e 94 d3 05 	call	0xba6	; 0xba6 <EF_void_UART_SendString>
    1656:	0e 94 e0 05 	call	0xbc0	; 0xbc0 <EF_void_UART_SendNewLine>
    165a:	84 e1       	ldi	r24, 0x14	; 20
    165c:	91 e0       	ldi	r25, 0x01	; 1
    165e:	0e 94 d3 05 	call	0xba6	; 0xba6 <EF_void_UART_SendString>
    1662:	0e 94 e0 05 	call	0xbc0	; 0xbc0 <EF_void_UART_SendNewLine>
    1666:	8b ea       	ldi	r24, 0xAB	; 171
    1668:	90 e0       	ldi	r25, 0x00	; 0
    166a:	0e 94 d3 05 	call	0xba6	; 0xba6 <EF_void_UART_SendString>
    166e:	80 91 4d 05 	lds	r24, 0x054D
    1672:	90 91 4e 05 	lds	r25, 0x054E
    1676:	0e 94 d3 05 	call	0xba6	; 0xba6 <EF_void_UART_SendString>
    167a:	0e 94 e0 05 	call	0xbc0	; 0xbc0 <EF_void_UART_SendNewLine>
    167e:	0e 94 3d 17 	call	0x2e7a	; 0x2e7a <EF_void_LCD_Clear_Screen>
    1682:	81 e0       	ldi	r24, 0x01	; 1
    1684:	61 e0       	ldi	r22, 0x01	; 1
    1686:	0e 94 f6 16 	call	0x2dec	; 0x2dec <EF_void_LCD_goto>
    168a:	80 91 4d 05 	lds	r24, 0x054D
    168e:	90 91 4e 05 	lds	r25, 0x054E
    1692:	0e 94 17 17 	call	0x2e2e	; 0x2e2e <EF_void_LCD_print>
    1696:	80 e2       	ldi	r24, 0x20	; 32
    1698:	9e e4       	ldi	r25, 0x4E	; 78
    169a:	28 ec       	ldi	r18, 0xC8	; 200
    169c:	30 e0       	ldi	r19, 0x00	; 0
    169e:	f9 01       	movw	r30, r18
    16a0:	31 97       	sbiw	r30, 0x01	; 1
    16a2:	f1 f7       	brne	.-4      	; 0x16a0 <EF_Green_Kit_KeyPad_test+0xac>
    16a4:	01 97       	sbiw	r24, 0x01	; 1
    16a6:	d9 f7       	brne	.-10     	; 0x169e <EF_Green_Kit_KeyPad_test+0xaa>
    16a8:	06 c0       	rjmp	.+12     	; 0x16b6 <EF_Green_Kit_KeyPad_test+0xc2>
    16aa:	11 e0       	ldi	r17, 0x01	; 1
    16ac:	0e 94 0b 16 	call	0x2c16	; 0x2c16 <EF_u8_KeyPad_Scan>
    16b0:	08 2f       	mov	r16, r24
    16b2:	88 23       	and	r24, r24
    16b4:	11 f4       	brne	.+4      	; 0x16ba <EF_Green_Kit_KeyPad_test+0xc6>
    16b6:	10 e0       	ldi	r17, 0x00	; 0
    16b8:	f9 cf       	rjmp	.-14     	; 0x16ac <EF_Green_Kit_KeyPad_test+0xb8>
    16ba:	11 23       	and	r17, r17
    16bc:	b9 f7       	brne	.-18     	; 0x16ac <EF_Green_Kit_KeyPad_test+0xb8>
    16be:	81 e0       	ldi	r24, 0x01	; 1
    16c0:	61 e0       	ldi	r22, 0x01	; 1
    16c2:	0e 94 f6 16 	call	0x2dec	; 0x2dec <EF_void_LCD_goto>
    16c6:	80 2f       	mov	r24, r16
    16c8:	90 e0       	ldi	r25, 0x00	; 0
    16ca:	62 e0       	ldi	r22, 0x02	; 2
    16cc:	0e 94 cc 17 	call	0x2f98	; 0x2f98 <EF_void_LCD_print_NUM>
    16d0:	8b ea       	ldi	r24, 0xAB	; 171
    16d2:	90 e0       	ldi	r25, 0x00	; 0
    16d4:	0e 94 d3 05 	call	0xba6	; 0xba6 <EF_void_UART_SendString>
    16d8:	89 e3       	ldi	r24, 0x39	; 57
    16da:	91 e0       	ldi	r25, 0x01	; 1
    16dc:	0e 94 d3 05 	call	0xba6	; 0xba6 <EF_void_UART_SendString>
    16e0:	80 2f       	mov	r24, r16
    16e2:	90 e0       	ldi	r25, 0x00	; 0
    16e4:	0e 94 5f 06 	call	0xcbe	; 0xcbe <EF_void_UART_Send_Integer>
    16e8:	0e 94 e0 05 	call	0xbc0	; 0xbc0 <EF_void_UART_SendNewLine>
    16ec:	09 30       	cpi	r16, 0x09	; 9
    16ee:	e9 f6       	brne	.-70     	; 0x16aa <EF_Green_Kit_KeyPad_test+0xb6>
    16f0:	0e 94 3d 17 	call	0x2e7a	; 0x2e7a <EF_void_LCD_Clear_Screen>
    16f4:	81 e0       	ldi	r24, 0x01	; 1
    16f6:	61 e0       	ldi	r22, 0x01	; 1
    16f8:	0e 94 f6 16 	call	0x2dec	; 0x2dec <EF_void_LCD_goto>
    16fc:	89 e4       	ldi	r24, 0x49	; 73
    16fe:	91 e0       	ldi	r25, 0x01	; 1
    1700:	0e 94 17 17 	call	0x2e2e	; 0x2e2e <EF_void_LCD_print>
    1704:	8b ea       	ldi	r24, 0xAB	; 171
    1706:	90 e0       	ldi	r25, 0x00	; 0
    1708:	0e 94 d3 05 	call	0xba6	; 0xba6 <EF_void_UART_SendString>
    170c:	85 e5       	ldi	r24, 0x55	; 85
    170e:	91 e0       	ldi	r25, 0x01	; 1
    1710:	0e 94 d3 05 	call	0xba6	; 0xba6 <EF_void_UART_SendString>
    1714:	0e 94 e0 05 	call	0xbc0	; 0xbc0 <EF_void_UART_SendNewLine>
    1718:	86 e8       	ldi	r24, 0x86	; 134
    171a:	90 e0       	ldi	r25, 0x00	; 0
    171c:	0e 94 d3 05 	call	0xba6	; 0xba6 <EF_void_UART_SendString>
    1720:	1f 91       	pop	r17
    1722:	0f 91       	pop	r16
    1724:	08 95       	ret

00001726 <EF_Green_Kit_EEPROM_24C16_Test>:
    1726:	df 92       	push	r13
    1728:	ef 92       	push	r14
    172a:	ff 92       	push	r15
    172c:	0f 93       	push	r16
    172e:	1f 93       	push	r17
    1730:	df 93       	push	r29
    1732:	cf 93       	push	r28
    1734:	0f 92       	push	r0
    1736:	cd b7       	in	r28, 0x3d	; 61
    1738:	de b7       	in	r29, 0x3e	; 62
    173a:	0e 94 e0 05 	call	0xbc0	; 0xbc0 <EF_void_UART_SendNewLine>
    173e:	86 e8       	ldi	r24, 0x86	; 134
    1740:	90 e0       	ldi	r25, 0x00	; 0
    1742:	0e 94 d3 05 	call	0xba6	; 0xba6 <EF_void_UART_SendString>
    1746:	0e 94 e0 05 	call	0xbc0	; 0xbc0 <EF_void_UART_SendNewLine>
    174a:	8b ea       	ldi	r24, 0xAB	; 171
    174c:	90 e0       	ldi	r25, 0x00	; 0
    174e:	0e 94 d3 05 	call	0xba6	; 0xba6 <EF_void_UART_SendString>
    1752:	89 e6       	ldi	r24, 0x69	; 105
    1754:	91 e0       	ldi	r25, 0x01	; 1
    1756:	0e 94 d3 05 	call	0xba6	; 0xba6 <EF_void_UART_SendString>
    175a:	0e 94 e0 05 	call	0xbc0	; 0xbc0 <EF_void_UART_SendNewLine>
    175e:	0e 94 3d 17 	call	0x2e7a	; 0x2e7a <EF_void_LCD_Clear_Screen>
    1762:	81 e0       	ldi	r24, 0x01	; 1
    1764:	61 e0       	ldi	r22, 0x01	; 1
    1766:	0e 94 f6 16 	call	0x2dec	; 0x2dec <EF_void_LCD_goto>
    176a:	8b e7       	ldi	r24, 0x7B	; 123
    176c:	91 e0       	ldi	r25, 0x01	; 1
    176e:	0e 94 17 17 	call	0x2e2e	; 0x2e2e <EF_void_LCD_print>
    1772:	80 e4       	ldi	r24, 0x40	; 64
    1774:	9c e9       	ldi	r25, 0x9C	; 156
    1776:	28 ec       	ldi	r18, 0xC8	; 200
    1778:	30 e0       	ldi	r19, 0x00	; 0
    177a:	f9 01       	movw	r30, r18
    177c:	31 97       	sbiw	r30, 0x01	; 1
    177e:	f1 f7       	brne	.-4      	; 0x177c <EF_Green_Kit_EEPROM_24C16_Test+0x56>
    1780:	01 97       	sbiw	r24, 0x01	; 1
    1782:	d9 f7       	brne	.-10     	; 0x177a <EF_Green_Kit_EEPROM_24C16_Test+0x54>
    1784:	84 e1       	ldi	r24, 0x14	; 20
    1786:	91 e0       	ldi	r25, 0x01	; 1
    1788:	0e 94 d3 05 	call	0xba6	; 0xba6 <EF_void_UART_SendString>
    178c:	0e 94 e0 05 	call	0xbc0	; 0xbc0 <EF_void_UART_SendNewLine>
    1790:	8b ea       	ldi	r24, 0xAB	; 171
    1792:	90 e0       	ldi	r25, 0x00	; 0
    1794:	0e 94 d3 05 	call	0xba6	; 0xba6 <EF_void_UART_SendString>
    1798:	8b e8       	ldi	r24, 0x8B	; 139
    179a:	91 e0       	ldi	r25, 0x01	; 1
    179c:	0e 94 d3 05 	call	0xba6	; 0xba6 <EF_void_UART_SendString>
    17a0:	0e 94 e0 05 	call	0xbc0	; 0xbc0 <EF_void_UART_SendNewLine>
    17a4:	8b ea       	ldi	r24, 0xAB	; 171
    17a6:	90 e0       	ldi	r25, 0x00	; 0
    17a8:	0e 94 d3 05 	call	0xba6	; 0xba6 <EF_void_UART_SendString>
    17ac:	82 e9       	ldi	r24, 0x92	; 146
    17ae:	91 e0       	ldi	r25, 0x01	; 1
    17b0:	0e 94 d3 05 	call	0xba6	; 0xba6 <EF_void_UART_SendString>
    17b4:	0e 94 e0 05 	call	0xbc0	; 0xbc0 <EF_void_UART_SendNewLine>
    17b8:	8b ea       	ldi	r24, 0xAB	; 171
    17ba:	90 e0       	ldi	r25, 0x00	; 0
    17bc:	0e 94 d3 05 	call	0xba6	; 0xba6 <EF_void_UART_SendString>
    17c0:	81 ea       	ldi	r24, 0xA1	; 161
    17c2:	91 e0       	ldi	r25, 0x01	; 1
    17c4:	0e 94 d3 05 	call	0xba6	; 0xba6 <EF_void_UART_SendString>
    17c8:	0e 94 e0 05 	call	0xbc0	; 0xbc0 <EF_void_UART_SendNewLine>
    17cc:	19 82       	std	Y+1, r1	; 0x01
    17ce:	0e 94 3d 17 	call	0x2e7a	; 0x2e7a <EF_void_LCD_Clear_Screen>
    17d2:	0e 94 77 0a 	call	0x14ee	; 0x14ee <EF_void_EEPROM24C64_Init>
    17d6:	81 e0       	ldi	r24, 0x01	; 1
    17d8:	61 e0       	ldi	r22, 0x01	; 1
    17da:	0e 94 f6 16 	call	0x2dec	; 0x2dec <EF_void_LCD_goto>
    17de:	82 e9       	ldi	r24, 0x92	; 146
    17e0:	91 e0       	ldi	r25, 0x01	; 1
    17e2:	0e 94 17 17 	call	0x2e2e	; 0x2e2e <EF_void_LCD_print>
    17e6:	82 e0       	ldi	r24, 0x02	; 2
    17e8:	61 e0       	ldi	r22, 0x01	; 1
    17ea:	0e 94 f6 16 	call	0x2dec	; 0x2dec <EF_void_LCD_goto>
    17ee:	8f ea       	ldi	r24, 0xAF	; 175
    17f0:	91 e0       	ldi	r25, 0x01	; 1
    17f2:	0e 94 17 17 	call	0x2e2e	; 0x2e2e <EF_void_LCD_print>
    17f6:	8a e0       	ldi	r24, 0x0A	; 10
    17f8:	d8 2e       	mov	r13, r24
    17fa:	7e 01       	movw	r14, r28
    17fc:	08 94       	sec
    17fe:	e1 1c       	adc	r14, r1
    1800:	f1 1c       	adc	r15, r1
    1802:	81 e0       	ldi	r24, 0x01	; 1
    1804:	61 e0       	ldi	r22, 0x01	; 1
    1806:	0e 94 f6 16 	call	0x2dec	; 0x2dec <EF_void_LCD_goto>
    180a:	82 e9       	ldi	r24, 0x92	; 146
    180c:	91 e0       	ldi	r25, 0x01	; 1
    180e:	0e 94 17 17 	call	0x2e2e	; 0x2e2e <EF_void_LCD_print>
    1812:	82 e0       	ldi	r24, 0x02	; 2
    1814:	61 e0       	ldi	r22, 0x01	; 1
    1816:	0e 94 f6 16 	call	0x2dec	; 0x2dec <EF_void_LCD_goto>
    181a:	8f ea       	ldi	r24, 0xAF	; 175
    181c:	91 e0       	ldi	r25, 0x01	; 1
    181e:	0e 94 17 17 	call	0x2e2e	; 0x2e2e <EF_void_LCD_print>
    1822:	0e 94 0b 16 	call	0x2c16	; 0x2c16 <EF_u8_KeyPad_Scan>
    1826:	81 30       	cpi	r24, 0x01	; 1
    1828:	29 f0       	breq	.+10     	; 0x1834 <EF_Green_Kit_EEPROM_24C16_Test+0x10e>
    182a:	0e 94 0b 16 	call	0x2c16	; 0x2c16 <EF_u8_KeyPad_Scan>
    182e:	82 30       	cpi	r24, 0x02	; 2
    1830:	09 f0       	breq	.+2      	; 0x1834 <EF_Green_Kit_EEPROM_24C16_Test+0x10e>
    1832:	d0 c0       	rjmp	.+416    	; 0x19d4 <EF_Green_Kit_EEPROM_24C16_Test+0x2ae>
    1834:	0e 94 3d 17 	call	0x2e7a	; 0x2e7a <EF_void_LCD_Clear_Screen>
    1838:	0e 94 0b 16 	call	0x2c16	; 0x2c16 <EF_u8_KeyPad_Scan>
    183c:	81 30       	cpi	r24, 0x01	; 1
    183e:	21 f0       	breq	.+8      	; 0x1848 <EF_Green_Kit_EEPROM_24C16_Test+0x122>
    1840:	82 30       	cpi	r24, 0x02	; 2
    1842:	09 f0       	breq	.+2      	; 0x1846 <EF_Green_Kit_EEPROM_24C16_Test+0x120>
    1844:	c7 c0       	rjmp	.+398    	; 0x19d4 <EF_Green_Kit_EEPROM_24C16_Test+0x2ae>
    1846:	75 c0       	rjmp	.+234    	; 0x1932 <EF_Green_Kit_EEPROM_24C16_Test+0x20c>
    1848:	0e 94 0b 16 	call	0x2c16	; 0x2c16 <EF_u8_KeyPad_Scan>
    184c:	88 23       	and	r24, r24
    184e:	e1 f7       	brne	.-8      	; 0x1848 <EF_Green_Kit_EEPROM_24C16_Test+0x122>
    1850:	8b ea       	ldi	r24, 0xAB	; 171
    1852:	90 e0       	ldi	r25, 0x00	; 0
    1854:	0e 94 d3 05 	call	0xba6	; 0xba6 <EF_void_UART_SendString>
    1858:	8d eb       	ldi	r24, 0xBD	; 189
    185a:	91 e0       	ldi	r25, 0x01	; 1
    185c:	0e 94 d3 05 	call	0xba6	; 0xba6 <EF_void_UART_SendString>
    1860:	81 e0       	ldi	r24, 0x01	; 1
    1862:	61 e0       	ldi	r22, 0x01	; 1
    1864:	0e 94 f6 16 	call	0x2dec	; 0x2dec <EF_void_LCD_goto>
    1868:	8b ec       	ldi	r24, 0xCB	; 203
    186a:	91 e0       	ldi	r25, 0x01	; 1
    186c:	0e 94 17 17 	call	0x2e2e	; 0x2e2e <EF_void_LCD_print>
    1870:	0e 94 0b 16 	call	0x2c16	; 0x2c16 <EF_u8_KeyPad_Scan>
    1874:	88 23       	and	r24, r24
    1876:	29 f1       	breq	.+74     	; 0x18c2 <EF_Green_Kit_EEPROM_24C16_Test+0x19c>
    1878:	0e 94 0b 16 	call	0x2c16	; 0x2c16 <EF_u8_KeyPad_Scan>
    187c:	89 30       	cpi	r24, 0x09	; 9
    187e:	08 f5       	brcc	.+66     	; 0x18c2 <EF_Green_Kit_EEPROM_24C16_Test+0x19c>
    1880:	80 91 c6 05 	lds	r24, 0x05C6
    1884:	08 2f       	mov	r16, r24
    1886:	10 e0       	ldi	r17, 0x00	; 0
    1888:	0e 94 0b 16 	call	0x2c16	; 0x2c16 <EF_u8_KeyPad_Scan>
    188c:	09 53       	subi	r16, 0x39	; 57
    188e:	1a 4f       	sbci	r17, 0xFA	; 250
    1890:	f8 01       	movw	r30, r16
    1892:	80 83       	st	Z, r24
    1894:	0e 94 0b 16 	call	0x2c16	; 0x2c16 <EF_u8_KeyPad_Scan>
    1898:	88 23       	and	r24, r24
    189a:	e1 f7       	brne	.-8      	; 0x1894 <EF_Green_Kit_EEPROM_24C16_Test+0x16e>
    189c:	80 91 c6 05 	lds	r24, 0x05C6
    18a0:	8f 5f       	subi	r24, 0xFF	; 255
    18a2:	80 93 c6 05 	sts	0x05C6, r24
    18a6:	82 30       	cpi	r24, 0x02	; 2
    18a8:	61 f4       	brne	.+24     	; 0x18c2 <EF_Green_Kit_EEPROM_24C16_Test+0x19c>
    18aa:	10 92 c6 05 	sts	0x05C6, r1
    18ae:	80 91 c8 05 	lds	r24, 0x05C8
    18b2:	90 e0       	ldi	r25, 0x00	; 0
    18b4:	0e 94 5f 06 	call	0xcbe	; 0xcbe <EF_void_UART_Send_Integer>
    18b8:	80 91 c7 05 	lds	r24, 0x05C7
    18bc:	90 e0       	ldi	r25, 0x00	; 0
    18be:	0e 94 5f 06 	call	0xcbe	; 0xcbe <EF_void_UART_Send_Integer>
    18c2:	80 91 c8 05 	lds	r24, 0x05C8
    18c6:	8d 9d       	mul	r24, r13
    18c8:	90 01       	movw	r18, r0
    18ca:	11 24       	eor	r1, r1
    18cc:	90 91 c7 05 	lds	r25, 0x05C7
    18d0:	29 0f       	add	r18, r25
    18d2:	31 1d       	adc	r19, r1
    18d4:	30 93 c5 05 	sts	0x05C5, r19
    18d8:	20 93 c4 05 	sts	0x05C4, r18
    18dc:	80 5d       	subi	r24, 0xD0	; 208
    18de:	0e 94 ce 16 	call	0x2d9c	; 0x2d9c <EF_void_LCD_send_data>
    18e2:	80 91 c7 05 	lds	r24, 0x05C7
    18e6:	80 5d       	subi	r24, 0xD0	; 208
    18e8:	0e 94 ce 16 	call	0x2d9c	; 0x2d9c <EF_void_LCD_send_data>
    18ec:	82 e0       	ldi	r24, 0x02	; 2
    18ee:	61 e0       	ldi	r22, 0x01	; 1
    18f0:	0e 94 f6 16 	call	0x2dec	; 0x2dec <EF_void_LCD_goto>
    18f4:	84 ed       	ldi	r24, 0xD4	; 212
    18f6:	91 e0       	ldi	r25, 0x01	; 1
    18f8:	0e 94 17 17 	call	0x2e2e	; 0x2e2e <EF_void_LCD_print>
    18fc:	0e 94 0b 16 	call	0x2c16	; 0x2c16 <EF_u8_KeyPad_Scan>
    1900:	89 30       	cpi	r24, 0x09	; 9
    1902:	09 f0       	breq	.+2      	; 0x1906 <EF_Green_Kit_EEPROM_24C16_Test+0x1e0>
    1904:	ad cf       	rjmp	.-166    	; 0x1860 <EF_Green_Kit_EEPROM_24C16_Test+0x13a>
    1906:	0e 94 0b 16 	call	0x2c16	; 0x2c16 <EF_u8_KeyPad_Scan>
    190a:	89 30       	cpi	r24, 0x09	; 9
    190c:	e1 f3       	breq	.-8      	; 0x1906 <EF_Green_Kit_EEPROM_24C16_Test+0x1e0>
    190e:	80 ea       	ldi	r24, 0xA0	; 160
    1910:	60 e1       	ldi	r22, 0x10	; 16
    1912:	70 e0       	ldi	r23, 0x00	; 0
    1914:	40 91 c4 05 	lds	r20, 0x05C4
    1918:	0e 94 47 0a 	call	0x148e	; 0x148e <EF_u8_EEPROM24C64_Write_Byte>
    191c:	0e 94 3d 17 	call	0x2e7a	; 0x2e7a <EF_void_LCD_Clear_Screen>
    1920:	0e 94 e0 05 	call	0xbc0	; 0xbc0 <EF_void_UART_SendNewLine>
    1924:	8b ea       	ldi	r24, 0xAB	; 171
    1926:	90 e0       	ldi	r25, 0x00	; 0
    1928:	0e 94 d3 05 	call	0xba6	; 0xba6 <EF_void_UART_SendString>
    192c:	88 ee       	ldi	r24, 0xE8	; 232
    192e:	91 e0       	ldi	r25, 0x01	; 1
    1930:	47 c0       	rjmp	.+142    	; 0x19c0 <EF_Green_Kit_EEPROM_24C16_Test+0x29a>
    1932:	0e 94 0b 16 	call	0x2c16	; 0x2c16 <EF_u8_KeyPad_Scan>
    1936:	88 23       	and	r24, r24
    1938:	e1 f7       	brne	.-8      	; 0x1932 <EF_Green_Kit_EEPROM_24C16_Test+0x20c>
    193a:	8b ea       	ldi	r24, 0xAB	; 171
    193c:	90 e0       	ldi	r25, 0x00	; 0
    193e:	0e 94 d3 05 	call	0xba6	; 0xba6 <EF_void_UART_SendString>
    1942:	84 ef       	ldi	r24, 0xF4	; 244
    1944:	91 e0       	ldi	r25, 0x01	; 1
    1946:	0e 94 d3 05 	call	0xba6	; 0xba6 <EF_void_UART_SendString>
    194a:	81 e0       	ldi	r24, 0x01	; 1
    194c:	61 e0       	ldi	r22, 0x01	; 1
    194e:	0e 94 f6 16 	call	0x2dec	; 0x2dec <EF_void_LCD_goto>
    1952:	81 e0       	ldi	r24, 0x01	; 1
    1954:	92 e0       	ldi	r25, 0x02	; 2
    1956:	0e 94 17 17 	call	0x2e2e	; 0x2e2e <EF_void_LCD_print>
    195a:	80 ea       	ldi	r24, 0xA0	; 160
    195c:	60 e1       	ldi	r22, 0x10	; 16
    195e:	70 e0       	ldi	r23, 0x00	; 0
    1960:	a7 01       	movw	r20, r14
    1962:	0e 94 11 0a 	call	0x1422	; 0x1422 <EF_u8_EEPROM24C64_Read_Byte>
    1966:	89 81       	ldd	r24, Y+1	; 0x01
    1968:	6a e0       	ldi	r22, 0x0A	; 10
    196a:	0e 94 af 1a 	call	0x355e	; 0x355e <__udivmodqi4>
    196e:	80 5d       	subi	r24, 0xD0	; 208
    1970:	0e 94 ce 16 	call	0x2d9c	; 0x2d9c <EF_void_LCD_send_data>
    1974:	89 81       	ldd	r24, Y+1	; 0x01
    1976:	6a e0       	ldi	r22, 0x0A	; 10
    1978:	0e 94 af 1a 	call	0x355e	; 0x355e <__udivmodqi4>
    197c:	89 2f       	mov	r24, r25
    197e:	80 5d       	subi	r24, 0xD0	; 208
    1980:	0e 94 ce 16 	call	0x2d9c	; 0x2d9c <EF_void_LCD_send_data>
    1984:	82 e0       	ldi	r24, 0x02	; 2
    1986:	61 e0       	ldi	r22, 0x01	; 1
    1988:	0e 94 f6 16 	call	0x2dec	; 0x2dec <EF_void_LCD_goto>
    198c:	84 ed       	ldi	r24, 0xD4	; 212
    198e:	91 e0       	ldi	r25, 0x01	; 1
    1990:	0e 94 17 17 	call	0x2e2e	; 0x2e2e <EF_void_LCD_print>
    1994:	0e 94 0b 16 	call	0x2c16	; 0x2c16 <EF_u8_KeyPad_Scan>
    1998:	89 30       	cpi	r24, 0x09	; 9
    199a:	b9 f6       	brne	.-82     	; 0x194a <EF_Green_Kit_EEPROM_24C16_Test+0x224>
    199c:	89 81       	ldd	r24, Y+1	; 0x01
    199e:	90 e0       	ldi	r25, 0x00	; 0
    19a0:	0e 94 5f 06 	call	0xcbe	; 0xcbe <EF_void_UART_Send_Integer>
    19a4:	0e 94 0b 16 	call	0x2c16	; 0x2c16 <EF_u8_KeyPad_Scan>
    19a8:	89 30       	cpi	r24, 0x09	; 9
    19aa:	e1 f3       	breq	.-8      	; 0x19a4 <EF_Green_Kit_EEPROM_24C16_Test+0x27e>
    19ac:	0e 94 3d 17 	call	0x2e7a	; 0x2e7a <EF_void_LCD_Clear_Screen>
    19b0:	0e 94 e0 05 	call	0xbc0	; 0xbc0 <EF_void_UART_SendNewLine>
    19b4:	8b ea       	ldi	r24, 0xAB	; 171
    19b6:	90 e0       	ldi	r25, 0x00	; 0
    19b8:	0e 94 d3 05 	call	0xba6	; 0xba6 <EF_void_UART_SendString>
    19bc:	8b e0       	ldi	r24, 0x0B	; 11
    19be:	92 e0       	ldi	r25, 0x02	; 2
    19c0:	0e 94 d3 05 	call	0xba6	; 0xba6 <EF_void_UART_SendString>
    19c4:	0e 94 e0 05 	call	0xbc0	; 0xbc0 <EF_void_UART_SendNewLine>
    19c8:	84 e1       	ldi	r24, 0x14	; 20
    19ca:	91 e0       	ldi	r25, 0x01	; 1
    19cc:	0e 94 d3 05 	call	0xba6	; 0xba6 <EF_void_UART_SendString>
    19d0:	0e 94 e0 05 	call	0xbc0	; 0xbc0 <EF_void_UART_SendNewLine>
    19d4:	0e 94 0b 16 	call	0x2c16	; 0x2c16 <EF_u8_KeyPad_Scan>
    19d8:	89 30       	cpi	r24, 0x09	; 9
    19da:	09 f0       	breq	.+2      	; 0x19de <EF_Green_Kit_EEPROM_24C16_Test+0x2b8>
    19dc:	12 cf       	rjmp	.-476    	; 0x1802 <EF_Green_Kit_EEPROM_24C16_Test+0xdc>
    19de:	85 e1       	ldi	r24, 0x15	; 21
    19e0:	92 e0       	ldi	r25, 0x02	; 2
    19e2:	0e 94 d3 05 	call	0xba6	; 0xba6 <EF_void_UART_SendString>
    19e6:	8a e1       	ldi	r24, 0x1A	; 26
    19e8:	92 e0       	ldi	r25, 0x02	; 2
    19ea:	0e 94 d3 05 	call	0xba6	; 0xba6 <EF_void_UART_SendString>
    19ee:	0e 94 e0 05 	call	0xbc0	; 0xbc0 <EF_void_UART_SendNewLine>
    19f2:	86 e8       	ldi	r24, 0x86	; 134
    19f4:	90 e0       	ldi	r25, 0x00	; 0
    19f6:	0e 94 d3 05 	call	0xba6	; 0xba6 <EF_void_UART_SendString>
    19fa:	0f 90       	pop	r0
    19fc:	cf 91       	pop	r28
    19fe:	df 91       	pop	r29
    1a00:	1f 91       	pop	r17
    1a02:	0f 91       	pop	r16
    1a04:	ff 90       	pop	r15
    1a06:	ef 90       	pop	r14
    1a08:	df 90       	pop	r13
    1a0a:	08 95       	ret

00001a0c <EF_Green_Kit_DS1307_Test>:
    1a0c:	2f 92       	push	r2
    1a0e:	3f 92       	push	r3
    1a10:	4f 92       	push	r4
    1a12:	5f 92       	push	r5
    1a14:	6f 92       	push	r6
    1a16:	7f 92       	push	r7
    1a18:	8f 92       	push	r8
    1a1a:	9f 92       	push	r9
    1a1c:	af 92       	push	r10
    1a1e:	bf 92       	push	r11
    1a20:	cf 92       	push	r12
    1a22:	df 92       	push	r13
    1a24:	ef 92       	push	r14
    1a26:	ff 92       	push	r15
    1a28:	1f 93       	push	r17
    1a2a:	df 93       	push	r29
    1a2c:	cf 93       	push	r28
    1a2e:	00 d0       	rcall	.+0      	; 0x1a30 <EF_Green_Kit_DS1307_Test+0x24>
    1a30:	00 d0       	rcall	.+0      	; 0x1a32 <EF_Green_Kit_DS1307_Test+0x26>
    1a32:	00 d0       	rcall	.+0      	; 0x1a34 <EF_Green_Kit_DS1307_Test+0x28>
    1a34:	cd b7       	in	r28, 0x3d	; 61
    1a36:	de b7       	in	r29, 0x3e	; 62
    1a38:	19 82       	std	Y+1, r1	; 0x01
    1a3a:	1a 82       	std	Y+2, r1	; 0x02
    1a3c:	1b 82       	std	Y+3, r1	; 0x03
    1a3e:	1c 82       	std	Y+4, r1	; 0x04
    1a40:	1d 82       	std	Y+5, r1	; 0x05
    1a42:	1e 82       	std	Y+6, r1	; 0x06
    1a44:	0e 94 3d 17 	call	0x2e7a	; 0x2e7a <EF_void_LCD_Clear_Screen>
    1a48:	0e 94 c3 09 	call	0x1386	; 0x1386 <EF_void_DS1307_Init>
    1a4c:	0e 94 7b 16 	call	0x2cf6	; 0x2cf6 <EF_void_KeyPad_Init>
    1a50:	0e 94 e0 05 	call	0xbc0	; 0xbc0 <EF_void_UART_SendNewLine>
    1a54:	86 e8       	ldi	r24, 0x86	; 134
    1a56:	90 e0       	ldi	r25, 0x00	; 0
    1a58:	0e 94 d3 05 	call	0xba6	; 0xba6 <EF_void_UART_SendString>
    1a5c:	0e 94 e0 05 	call	0xbc0	; 0xbc0 <EF_void_UART_SendNewLine>
    1a60:	8b ea       	ldi	r24, 0xAB	; 171
    1a62:	90 e0       	ldi	r25, 0x00	; 0
    1a64:	0e 94 d3 05 	call	0xba6	; 0xba6 <EF_void_UART_SendString>
    1a68:	8e e2       	ldi	r24, 0x2E	; 46
    1a6a:	92 e0       	ldi	r25, 0x02	; 2
    1a6c:	0e 94 d3 05 	call	0xba6	; 0xba6 <EF_void_UART_SendString>
    1a70:	0e 94 e0 05 	call	0xbc0	; 0xbc0 <EF_void_UART_SendNewLine>
    1a74:	80 e2       	ldi	r24, 0x20	; 32
    1a76:	9e e4       	ldi	r25, 0x4E	; 78
    1a78:	28 ec       	ldi	r18, 0xC8	; 200
    1a7a:	30 e0       	ldi	r19, 0x00	; 0
    1a7c:	f9 01       	movw	r30, r18
    1a7e:	31 97       	sbiw	r30, 0x01	; 1
    1a80:	f1 f7       	brne	.-4      	; 0x1a7e <EF_Green_Kit_DS1307_Test+0x72>
    1a82:	01 97       	sbiw	r24, 0x01	; 1
    1a84:	d9 f7       	brne	.-10     	; 0x1a7c <EF_Green_Kit_DS1307_Test+0x70>
    1a86:	84 e1       	ldi	r24, 0x14	; 20
    1a88:	91 e0       	ldi	r25, 0x01	; 1
    1a8a:	0e 94 d3 05 	call	0xba6	; 0xba6 <EF_void_UART_SendString>
    1a8e:	0e 94 e0 05 	call	0xbc0	; 0xbc0 <EF_void_UART_SendNewLine>
    1a92:	8b ea       	ldi	r24, 0xAB	; 171
    1a94:	90 e0       	ldi	r25, 0x00	; 0
    1a96:	0e 94 d3 05 	call	0xba6	; 0xba6 <EF_void_UART_SendString>
    1a9a:	80 91 4d 05 	lds	r24, 0x054D
    1a9e:	90 91 4e 05 	lds	r25, 0x054E
    1aa2:	0e 94 d3 05 	call	0xba6	; 0xba6 <EF_void_UART_SendString>
    1aa6:	0e 94 e0 05 	call	0xbc0	; 0xbc0 <EF_void_UART_SendNewLine>
    1aaa:	0e 94 3d 17 	call	0x2e7a	; 0x2e7a <EF_void_LCD_Clear_Screen>
    1aae:	81 e0       	ldi	r24, 0x01	; 1
    1ab0:	61 e0       	ldi	r22, 0x01	; 1
    1ab2:	0e 94 f6 16 	call	0x2dec	; 0x2dec <EF_void_LCD_goto>
    1ab6:	80 91 4d 05 	lds	r24, 0x054D
    1aba:	90 91 4e 05 	lds	r25, 0x054E
    1abe:	0e 94 17 17 	call	0x2e2e	; 0x2e2e <EF_void_LCD_print>
    1ac2:	80 e2       	ldi	r24, 0x20	; 32
    1ac4:	9e e4       	ldi	r25, 0x4E	; 78
    1ac6:	28 ec       	ldi	r18, 0xC8	; 200
    1ac8:	30 e0       	ldi	r19, 0x00	; 0
    1aca:	f9 01       	movw	r30, r18
    1acc:	31 97       	sbiw	r30, 0x01	; 1
    1ace:	f1 f7       	brne	.-4      	; 0x1acc <EF_Green_Kit_DS1307_Test+0xc0>
    1ad0:	01 97       	sbiw	r24, 0x01	; 1
    1ad2:	d9 f7       	brne	.-10     	; 0x1aca <EF_Green_Kit_DS1307_Test+0xbe>
    1ad4:	0e 94 3d 17 	call	0x2e7a	; 0x2e7a <EF_void_LCD_Clear_Screen>
    1ad8:	10 e0       	ldi	r17, 0x00	; 0
    1ada:	62 e0       	ldi	r22, 0x02	; 2
    1adc:	26 2e       	mov	r2, r22
    1ade:	31 2c       	mov	r3, r1
    1ae0:	2c 0e       	add	r2, r28
    1ae2:	3d 1e       	adc	r3, r29
    1ae4:	53 e0       	ldi	r21, 0x03	; 3
    1ae6:	45 2e       	mov	r4, r21
    1ae8:	51 2c       	mov	r5, r1
    1aea:	4c 0e       	add	r4, r28
    1aec:	5d 1e       	adc	r5, r29
    1aee:	3e 01       	movw	r6, r28
    1af0:	08 94       	sec
    1af2:	61 1c       	adc	r6, r1
    1af4:	71 1c       	adc	r7, r1
    1af6:	44 e0       	ldi	r20, 0x04	; 4
    1af8:	84 2e       	mov	r8, r20
    1afa:	91 2c       	mov	r9, r1
    1afc:	8c 0e       	add	r8, r28
    1afe:	9d 1e       	adc	r9, r29
    1b00:	35 e0       	ldi	r19, 0x05	; 5
    1b02:	a3 2e       	mov	r10, r19
    1b04:	b1 2c       	mov	r11, r1
    1b06:	ac 0e       	add	r10, r28
    1b08:	bd 1e       	adc	r11, r29
    1b0a:	26 e0       	ldi	r18, 0x06	; 6
    1b0c:	c2 2e       	mov	r12, r18
    1b0e:	d1 2c       	mov	r13, r1
    1b10:	cc 0e       	add	r12, r28
    1b12:	dd 1e       	adc	r13, r29
    1b14:	98 ec       	ldi	r25, 0xC8	; 200
    1b16:	e9 2e       	mov	r14, r25
    1b18:	f1 2c       	mov	r15, r1
    1b1a:	c3 01       	movw	r24, r6
    1b1c:	b1 01       	movw	r22, r2
    1b1e:	a2 01       	movw	r20, r4
    1b20:	0e 94 76 09 	call	0x12ec	; 0x12ec <EF_void_DS1307_GetTime>
    1b24:	c4 01       	movw	r24, r8
    1b26:	b5 01       	movw	r22, r10
    1b28:	a6 01       	movw	r20, r12
    1b2a:	0e 94 29 09 	call	0x1252	; 0x1252 <EF_void_DS1307_GetDate>
    1b2e:	81 e0       	ldi	r24, 0x01	; 1
    1b30:	61 e0       	ldi	r22, 0x01	; 1
    1b32:	0e 94 f6 16 	call	0x2dec	; 0x2dec <EF_void_LCD_goto>
    1b36:	8d e3       	ldi	r24, 0x3D	; 61
    1b38:	92 e0       	ldi	r25, 0x02	; 2
    1b3a:	0e 94 17 17 	call	0x2e2e	; 0x2e2e <EF_void_LCD_print>
    1b3e:	89 81       	ldd	r24, Y+1	; 0x01
    1b40:	6a 81       	ldd	r22, Y+2	; 0x02
    1b42:	4b 81       	ldd	r20, Y+3	; 0x03
    1b44:	0e 94 65 08 	call	0x10ca	; 0x10ca <LCD_update_time>
    1b48:	82 e0       	ldi	r24, 0x02	; 2
    1b4a:	61 e0       	ldi	r22, 0x01	; 1
    1b4c:	0e 94 f6 16 	call	0x2dec	; 0x2dec <EF_void_LCD_goto>
    1b50:	85 e4       	ldi	r24, 0x45	; 69
    1b52:	92 e0       	ldi	r25, 0x02	; 2
    1b54:	0e 94 17 17 	call	0x2e2e	; 0x2e2e <EF_void_LCD_print>
    1b58:	8c 81       	ldd	r24, Y+4	; 0x04
    1b5a:	6d 81       	ldd	r22, Y+5	; 0x05
    1b5c:	4e 81       	ldd	r20, Y+6	; 0x06
    1b5e:	0e 94 65 08 	call	0x10ca	; 0x10ca <LCD_update_time>
    1b62:	88 ee       	ldi	r24, 0xE8	; 232
    1b64:	93 e0       	ldi	r25, 0x03	; 3
    1b66:	f7 01       	movw	r30, r14
    1b68:	31 97       	sbiw	r30, 0x01	; 1
    1b6a:	f1 f7       	brne	.-4      	; 0x1b68 <EF_Green_Kit_DS1307_Test+0x15c>
    1b6c:	01 97       	sbiw	r24, 0x01	; 1
    1b6e:	d9 f7       	brne	.-10     	; 0x1b66 <EF_Green_Kit_DS1307_Test+0x15a>
    1b70:	17 30       	cpi	r17, 0x07	; 7
    1b72:	e8 f0       	brcs	.+58     	; 0x1bae <EF_Green_Kit_DS1307_Test+0x1a2>
    1b74:	8b ea       	ldi	r24, 0xAB	; 171
    1b76:	90 e0       	ldi	r25, 0x00	; 0
    1b78:	0e 94 d3 05 	call	0xba6	; 0xba6 <EF_void_UART_SendString>
    1b7c:	8d e3       	ldi	r24, 0x3D	; 61
    1b7e:	92 e0       	ldi	r25, 0x02	; 2
    1b80:	0e 94 d3 05 	call	0xba6	; 0xba6 <EF_void_UART_SendString>
    1b84:	89 81       	ldd	r24, Y+1	; 0x01
    1b86:	6a 81       	ldd	r22, Y+2	; 0x02
    1b88:	4b 81       	ldd	r20, Y+3	; 0x03
    1b8a:	0e 94 e9 05 	call	0xbd2	; 0xbd2 <EF_void_UART_update_time>
    1b8e:	8d e4       	ldi	r24, 0x4D	; 77
    1b90:	92 e0       	ldi	r25, 0x02	; 2
    1b92:	0e 94 d3 05 	call	0xba6	; 0xba6 <EF_void_UART_SendString>
    1b96:	85 e4       	ldi	r24, 0x45	; 69
    1b98:	92 e0       	ldi	r25, 0x02	; 2
    1b9a:	0e 94 d3 05 	call	0xba6	; 0xba6 <EF_void_UART_SendString>
    1b9e:	8c 81       	ldd	r24, Y+4	; 0x04
    1ba0:	6d 81       	ldd	r22, Y+5	; 0x05
    1ba2:	4e 81       	ldd	r20, Y+6	; 0x06
    1ba4:	0e 94 e9 05 	call	0xbd2	; 0xbd2 <EF_void_UART_update_time>
    1ba8:	0e 94 e0 05 	call	0xbc0	; 0xbc0 <EF_void_UART_SendNewLine>
    1bac:	10 e0       	ldi	r17, 0x00	; 0
    1bae:	0e 94 0b 16 	call	0x2c16	; 0x2c16 <EF_u8_KeyPad_Scan>
    1bb2:	89 30       	cpi	r24, 0x09	; 9
    1bb4:	11 f0       	breq	.+4      	; 0x1bba <EF_Green_Kit_DS1307_Test+0x1ae>
    1bb6:	1f 5f       	subi	r17, 0xFF	; 255
    1bb8:	b0 cf       	rjmp	.-160    	; 0x1b1a <EF_Green_Kit_DS1307_Test+0x10e>
    1bba:	8b ea       	ldi	r24, 0xAB	; 171
    1bbc:	90 e0       	ldi	r25, 0x00	; 0
    1bbe:	0e 94 d3 05 	call	0xba6	; 0xba6 <EF_void_UART_SendString>
    1bc2:	83 e5       	ldi	r24, 0x53	; 83
    1bc4:	92 e0       	ldi	r25, 0x02	; 2
    1bc6:	0e 94 d3 05 	call	0xba6	; 0xba6 <EF_void_UART_SendString>
    1bca:	0e 94 e0 05 	call	0xbc0	; 0xbc0 <EF_void_UART_SendNewLine>
    1bce:	86 e8       	ldi	r24, 0x86	; 134
    1bd0:	90 e0       	ldi	r25, 0x00	; 0
    1bd2:	0e 94 d3 05 	call	0xba6	; 0xba6 <EF_void_UART_SendString>
    1bd6:	26 96       	adiw	r28, 0x06	; 6
    1bd8:	0f b6       	in	r0, 0x3f	; 63
    1bda:	f8 94       	cli
    1bdc:	de bf       	out	0x3e, r29	; 62
    1bde:	0f be       	out	0x3f, r0	; 63
    1be0:	cd bf       	out	0x3d, r28	; 61
    1be2:	cf 91       	pop	r28
    1be4:	df 91       	pop	r29
    1be6:	1f 91       	pop	r17
    1be8:	ff 90       	pop	r15
    1bea:	ef 90       	pop	r14
    1bec:	df 90       	pop	r13
    1bee:	cf 90       	pop	r12
    1bf0:	bf 90       	pop	r11
    1bf2:	af 90       	pop	r10
    1bf4:	9f 90       	pop	r9
    1bf6:	8f 90       	pop	r8
    1bf8:	7f 90       	pop	r7
    1bfa:	6f 90       	pop	r6
    1bfc:	5f 90       	pop	r5
    1bfe:	4f 90       	pop	r4
    1c00:	3f 90       	pop	r3
    1c02:	2f 90       	pop	r2
    1c04:	08 95       	ret

00001c06 <EF_Green_Kit_screen3>:
    1c06:	81 e0       	ldi	r24, 0x01	; 1
    1c08:	61 e0       	ldi	r22, 0x01	; 1
    1c0a:	0e 94 f6 16 	call	0x2dec	; 0x2dec <EF_void_LCD_goto>
    1c0e:	80 91 47 05 	lds	r24, 0x0547
    1c12:	90 91 48 05 	lds	r25, 0x0548
    1c16:	0e 94 17 17 	call	0x2e2e	; 0x2e2e <EF_void_LCD_print>
    1c1a:	82 e0       	ldi	r24, 0x02	; 2
    1c1c:	61 e0       	ldi	r22, 0x01	; 1
    1c1e:	0e 94 f6 16 	call	0x2dec	; 0x2dec <EF_void_LCD_goto>
    1c22:	80 91 49 05 	lds	r24, 0x0549
    1c26:	90 91 4a 05 	lds	r25, 0x054A
    1c2a:	0e 94 17 17 	call	0x2e2e	; 0x2e2e <EF_void_LCD_print>
    1c2e:	0e 94 7b 16 	call	0x2cf6	; 0x2cf6 <EF_void_KeyPad_Init>
    1c32:	0e 94 0b 16 	call	0x2c16	; 0x2c16 <EF_u8_KeyPad_Scan>
    1c36:	85 30       	cpi	r24, 0x05	; 5
    1c38:	29 f0       	breq	.+10     	; 0x1c44 <EF_Green_Kit_screen3+0x3e>
    1c3a:	0e 94 0b 16 	call	0x2c16	; 0x2c16 <EF_u8_KeyPad_Scan>
    1c3e:	86 30       	cpi	r24, 0x06	; 6
    1c40:	09 f0       	breq	.+2      	; 0x1c44 <EF_Green_Kit_screen3+0x3e>
    1c42:	7f c0       	rjmp	.+254    	; 0x1d42 <EF_Green_Kit_screen3+0x13c>
    1c44:	0e 94 0b 16 	call	0x2c16	; 0x2c16 <EF_u8_KeyPad_Scan>
    1c48:	86 30       	cpi	r24, 0x06	; 6
    1c4a:	f1 f1       	breq	.+124    	; 0x1cc8 <EF_Green_Kit_screen3+0xc2>
    1c4c:	89 30       	cpi	r24, 0x09	; 9
    1c4e:	09 f4       	brne	.+2      	; 0x1c52 <EF_Green_Kit_screen3+0x4c>
    1c50:	76 c0       	rjmp	.+236    	; 0x1d3e <EF_Green_Kit_screen3+0x138>
    1c52:	85 30       	cpi	r24, 0x05	; 5
    1c54:	b9 f7       	brne	.-18     	; 0x1c44 <EF_Green_Kit_screen3+0x3e>
    1c56:	0e 94 93 0b 	call	0x1726	; 0x1726 <EF_Green_Kit_EEPROM_24C16_Test>
    1c5a:	0e 94 e0 05 	call	0xbc0	; 0xbc0 <EF_void_UART_SendNewLine>
    1c5e:	8b ea       	ldi	r24, 0xAB	; 171
    1c60:	90 e0       	ldi	r25, 0x00	; 0
    1c62:	0e 94 d3 05 	call	0xba6	; 0xba6 <EF_void_UART_SendString>
    1c66:	80 91 4d 05 	lds	r24, 0x054D
    1c6a:	90 91 4e 05 	lds	r25, 0x054E
    1c6e:	0e 94 d3 05 	call	0xba6	; 0xba6 <EF_void_UART_SendString>
    1c72:	0e 94 e0 05 	call	0xbc0	; 0xbc0 <EF_void_UART_SendNewLine>
    1c76:	84 e1       	ldi	r24, 0x14	; 20
    1c78:	91 e0       	ldi	r25, 0x01	; 1
    1c7a:	0e 94 d3 05 	call	0xba6	; 0xba6 <EF_void_UART_SendString>
    1c7e:	0e 94 e0 05 	call	0xbc0	; 0xbc0 <EF_void_UART_SendNewLine>
    1c82:	8b ea       	ldi	r24, 0xAB	; 171
    1c84:	90 e0       	ldi	r25, 0x00	; 0
    1c86:	0e 94 d3 05 	call	0xba6	; 0xba6 <EF_void_UART_SendString>
    1c8a:	84 e6       	ldi	r24, 0x64	; 100
    1c8c:	92 e0       	ldi	r25, 0x02	; 2
    1c8e:	0e 94 d3 05 	call	0xba6	; 0xba6 <EF_void_UART_SendString>
    1c92:	0e 94 e0 05 	call	0xbc0	; 0xbc0 <EF_void_UART_SendNewLine>
    1c96:	86 e8       	ldi	r24, 0x86	; 134
    1c98:	90 e0       	ldi	r25, 0x00	; 0
    1c9a:	0e 94 d3 05 	call	0xba6	; 0xba6 <EF_void_UART_SendString>
    1c9e:	0e 94 e0 05 	call	0xbc0	; 0xbc0 <EF_void_UART_SendNewLine>
    1ca2:	0e 94 3d 17 	call	0x2e7a	; 0x2e7a <EF_void_LCD_Clear_Screen>
    1ca6:	81 e0       	ldi	r24, 0x01	; 1
    1ca8:	61 e0       	ldi	r22, 0x01	; 1
    1caa:	0e 94 f6 16 	call	0x2dec	; 0x2dec <EF_void_LCD_goto>
    1cae:	80 91 4d 05 	lds	r24, 0x054D
    1cb2:	90 91 4e 05 	lds	r25, 0x054E
    1cb6:	0e 94 17 17 	call	0x2e2e	; 0x2e2e <EF_void_LCD_print>
    1cba:	82 e0       	ldi	r24, 0x02	; 2
    1cbc:	61 e0       	ldi	r22, 0x01	; 1
    1cbe:	0e 94 f6 16 	call	0x2dec	; 0x2dec <EF_void_LCD_goto>
    1cc2:	84 e6       	ldi	r24, 0x64	; 100
    1cc4:	92 e0       	ldi	r25, 0x02	; 2
    1cc6:	38 c0       	rjmp	.+112    	; 0x1d38 <EF_Green_Kit_screen3+0x132>
    1cc8:	0e 94 06 0d 	call	0x1a0c	; 0x1a0c <EF_Green_Kit_DS1307_Test>
    1ccc:	0e 94 e0 05 	call	0xbc0	; 0xbc0 <EF_void_UART_SendNewLine>
    1cd0:	8b ea       	ldi	r24, 0xAB	; 171
    1cd2:	90 e0       	ldi	r25, 0x00	; 0
    1cd4:	0e 94 d3 05 	call	0xba6	; 0xba6 <EF_void_UART_SendString>
    1cd8:	80 91 4d 05 	lds	r24, 0x054D
    1cdc:	90 91 4e 05 	lds	r25, 0x054E
    1ce0:	0e 94 d3 05 	call	0xba6	; 0xba6 <EF_void_UART_SendString>
    1ce4:	0e 94 e0 05 	call	0xbc0	; 0xbc0 <EF_void_UART_SendNewLine>
    1ce8:	84 e1       	ldi	r24, 0x14	; 20
    1cea:	91 e0       	ldi	r25, 0x01	; 1
    1cec:	0e 94 d3 05 	call	0xba6	; 0xba6 <EF_void_UART_SendString>
    1cf0:	0e 94 e0 05 	call	0xbc0	; 0xbc0 <EF_void_UART_SendNewLine>
    1cf4:	8b ea       	ldi	r24, 0xAB	; 171
    1cf6:	90 e0       	ldi	r25, 0x00	; 0
    1cf8:	0e 94 d3 05 	call	0xba6	; 0xba6 <EF_void_UART_SendString>
    1cfc:	84 e7       	ldi	r24, 0x74	; 116
    1cfe:	92 e0       	ldi	r25, 0x02	; 2
    1d00:	0e 94 d3 05 	call	0xba6	; 0xba6 <EF_void_UART_SendString>
    1d04:	0e 94 e0 05 	call	0xbc0	; 0xbc0 <EF_void_UART_SendNewLine>
    1d08:	86 e8       	ldi	r24, 0x86	; 134
    1d0a:	90 e0       	ldi	r25, 0x00	; 0
    1d0c:	0e 94 d3 05 	call	0xba6	; 0xba6 <EF_void_UART_SendString>
    1d10:	0e 94 e0 05 	call	0xbc0	; 0xbc0 <EF_void_UART_SendNewLine>
    1d14:	0e 94 3d 17 	call	0x2e7a	; 0x2e7a <EF_void_LCD_Clear_Screen>
    1d18:	81 e0       	ldi	r24, 0x01	; 1
    1d1a:	61 e0       	ldi	r22, 0x01	; 1
    1d1c:	0e 94 f6 16 	call	0x2dec	; 0x2dec <EF_void_LCD_goto>
    1d20:	80 91 4d 05 	lds	r24, 0x054D
    1d24:	90 91 4e 05 	lds	r25, 0x054E
    1d28:	0e 94 17 17 	call	0x2e2e	; 0x2e2e <EF_void_LCD_print>
    1d2c:	82 e0       	ldi	r24, 0x02	; 2
    1d2e:	61 e0       	ldi	r22, 0x01	; 1
    1d30:	0e 94 f6 16 	call	0x2dec	; 0x2dec <EF_void_LCD_goto>
    1d34:	84 e7       	ldi	r24, 0x74	; 116
    1d36:	92 e0       	ldi	r25, 0x02	; 2
    1d38:	0e 94 17 17 	call	0x2e2e	; 0x2e2e <EF_void_LCD_print>
    1d3c:	83 cf       	rjmp	.-250    	; 0x1c44 <EF_Green_Kit_screen3+0x3e>
    1d3e:	0e 94 3d 17 	call	0x2e7a	; 0x2e7a <EF_void_LCD_Clear_Screen>
    1d42:	08 95       	ret

00001d44 <EF_Green_Kit_ADC_Test>:
    1d44:	ef 92       	push	r14
    1d46:	ff 92       	push	r15
    1d48:	0f 93       	push	r16
    1d4a:	1f 93       	push	r17
    1d4c:	cf 93       	push	r28
    1d4e:	df 93       	push	r29
    1d50:	0e 94 3d 17 	call	0x2e7a	; 0x2e7a <EF_void_LCD_Clear_Screen>
    1d54:	81 e0       	ldi	r24, 0x01	; 1
    1d56:	61 e0       	ldi	r22, 0x01	; 1
    1d58:	0e 94 f6 16 	call	0x2dec	; 0x2dec <EF_void_LCD_goto>
    1d5c:	80 91 55 05 	lds	r24, 0x0555
    1d60:	90 91 56 05 	lds	r25, 0x0556
    1d64:	0e 94 17 17 	call	0x2e2e	; 0x2e2e <EF_void_LCD_print>
    1d68:	0e 94 e0 05 	call	0xbc0	; 0xbc0 <EF_void_UART_SendNewLine>
    1d6c:	86 e8       	ldi	r24, 0x86	; 134
    1d6e:	90 e0       	ldi	r25, 0x00	; 0
    1d70:	0e 94 d3 05 	call	0xba6	; 0xba6 <EF_void_UART_SendString>
    1d74:	0e 94 e0 05 	call	0xbc0	; 0xbc0 <EF_void_UART_SendNewLine>
    1d78:	84 e8       	ldi	r24, 0x84	; 132
    1d7a:	92 e0       	ldi	r25, 0x02	; 2
    1d7c:	0e 94 d3 05 	call	0xba6	; 0xba6 <EF_void_UART_SendString>
    1d80:	8c e8       	ldi	r24, 0x8C	; 140
    1d82:	92 e0       	ldi	r25, 0x02	; 2
    1d84:	0e 94 d3 05 	call	0xba6	; 0xba6 <EF_void_UART_SendString>
    1d88:	80 e2       	ldi	r24, 0x20	; 32
    1d8a:	9e e4       	ldi	r25, 0x4E	; 78
    1d8c:	28 ec       	ldi	r18, 0xC8	; 200
    1d8e:	30 e0       	ldi	r19, 0x00	; 0
    1d90:	f9 01       	movw	r30, r18
    1d92:	31 97       	sbiw	r30, 0x01	; 1
    1d94:	f1 f7       	brne	.-4      	; 0x1d92 <EF_Green_Kit_ADC_Test+0x4e>
    1d96:	01 97       	sbiw	r24, 0x01	; 1
    1d98:	d9 f7       	brne	.-10     	; 0x1d90 <EF_Green_Kit_ADC_Test+0x4c>
    1d9a:	0e 94 e0 05 	call	0xbc0	; 0xbc0 <EF_void_UART_SendNewLine>
    1d9e:	84 e1       	ldi	r24, 0x14	; 20
    1da0:	91 e0       	ldi	r25, 0x01	; 1
    1da2:	0e 94 d3 05 	call	0xba6	; 0xba6 <EF_void_UART_SendString>
    1da6:	0e 94 e0 05 	call	0xbc0	; 0xbc0 <EF_void_UART_SendNewLine>
    1daa:	8b ea       	ldi	r24, 0xAB	; 171
    1dac:	90 e0       	ldi	r25, 0x00	; 0
    1dae:	0e 94 d3 05 	call	0xba6	; 0xba6 <EF_void_UART_SendString>
    1db2:	89 e9       	ldi	r24, 0x99	; 153
    1db4:	92 e0       	ldi	r25, 0x02	; 2
    1db6:	0e 94 d3 05 	call	0xba6	; 0xba6 <EF_void_UART_SendString>
    1dba:	0e 94 e0 05 	call	0xbc0	; 0xbc0 <EF_void_UART_SendNewLine>
    1dbe:	80 e2       	ldi	r24, 0x20	; 32
    1dc0:	9e e4       	ldi	r25, 0x4E	; 78
    1dc2:	28 ec       	ldi	r18, 0xC8	; 200
    1dc4:	30 e0       	ldi	r19, 0x00	; 0
    1dc6:	f9 01       	movw	r30, r18
    1dc8:	31 97       	sbiw	r30, 0x01	; 1
    1dca:	f1 f7       	brne	.-4      	; 0x1dc8 <EF_Green_Kit_ADC_Test+0x84>
    1dcc:	01 97       	sbiw	r24, 0x01	; 1
    1dce:	d9 f7       	brne	.-10     	; 0x1dc6 <EF_Green_Kit_ADC_Test+0x82>
    1dd0:	c0 e0       	ldi	r28, 0x00	; 0
    1dd2:	d0 e0       	ldi	r29, 0x00	; 0
    1dd4:	f8 ec       	ldi	r31, 0xC8	; 200
    1dd6:	ef 2e       	mov	r14, r31
    1dd8:	f1 2c       	mov	r15, r1
    1dda:	0e 94 3d 17 	call	0x2e7a	; 0x2e7a <EF_void_LCD_Clear_Screen>
    1dde:	81 e0       	ldi	r24, 0x01	; 1
    1de0:	61 e0       	ldi	r22, 0x01	; 1
    1de2:	0e 94 f6 16 	call	0x2dec	; 0x2dec <EF_void_LCD_goto>
    1de6:	85 eb       	ldi	r24, 0xB5	; 181
    1de8:	92 e0       	ldi	r25, 0x02	; 2
    1dea:	0e 94 17 17 	call	0x2e2e	; 0x2e2e <EF_void_LCD_print>
    1dee:	87 e0       	ldi	r24, 0x07	; 7
    1df0:	0e 94 80 00 	call	0x100	; 0x100 <EF_u16_ADC_read>
    1df4:	8c 01       	movw	r16, r24
    1df6:	62 e0       	ldi	r22, 0x02	; 2
    1df8:	0e 94 cc 17 	call	0x2f98	; 0x2f98 <EF_void_LCD_print_NUM>
    1dfc:	88 e8       	ldi	r24, 0x88	; 136
    1dfe:	93 e1       	ldi	r25, 0x13	; 19
    1e00:	f7 01       	movw	r30, r14
    1e02:	31 97       	sbiw	r30, 0x01	; 1
    1e04:	f1 f7       	brne	.-4      	; 0x1e02 <EF_Green_Kit_ADC_Test+0xbe>
    1e06:	01 97       	sbiw	r24, 0x01	; 1
    1e08:	d9 f7       	brne	.-10     	; 0x1e00 <EF_Green_Kit_ADC_Test+0xbc>
    1e0a:	8b ea       	ldi	r24, 0xAB	; 171
    1e0c:	90 e0       	ldi	r25, 0x00	; 0
    1e0e:	0e 94 d3 05 	call	0xba6	; 0xba6 <EF_void_UART_SendString>
    1e12:	86 ec       	ldi	r24, 0xC6	; 198
    1e14:	92 e0       	ldi	r25, 0x02	; 2
    1e16:	0e 94 d3 05 	call	0xba6	; 0xba6 <EF_void_UART_SendString>
    1e1a:	c8 01       	movw	r24, r16
    1e1c:	0e 94 5f 06 	call	0xcbe	; 0xcbe <EF_void_UART_Send_Integer>
    1e20:	0e 94 e0 05 	call	0xbc0	; 0xbc0 <EF_void_UART_SendNewLine>
    1e24:	21 96       	adiw	r28, 0x01	; 1
    1e26:	cc 30       	cpi	r28, 0x0C	; 12
    1e28:	d1 05       	cpc	r29, r1
    1e2a:	b9 f6       	brne	.-82     	; 0x1dda <EF_Green_Kit_ADC_Test+0x96>
    1e2c:	0e 94 e0 05 	call	0xbc0	; 0xbc0 <EF_void_UART_SendNewLine>
    1e30:	8b ea       	ldi	r24, 0xAB	; 171
    1e32:	90 e0       	ldi	r25, 0x00	; 0
    1e34:	0e 94 d3 05 	call	0xba6	; 0xba6 <EF_void_UART_SendString>
    1e38:	87 ed       	ldi	r24, 0xD7	; 215
    1e3a:	92 e0       	ldi	r25, 0x02	; 2
    1e3c:	0e 94 d3 05 	call	0xba6	; 0xba6 <EF_void_UART_SendString>
    1e40:	80 e2       	ldi	r24, 0x20	; 32
    1e42:	9e e4       	ldi	r25, 0x4E	; 78
    1e44:	28 ec       	ldi	r18, 0xC8	; 200
    1e46:	30 e0       	ldi	r19, 0x00	; 0
    1e48:	f9 01       	movw	r30, r18
    1e4a:	31 97       	sbiw	r30, 0x01	; 1
    1e4c:	f1 f7       	brne	.-4      	; 0x1e4a <EF_Green_Kit_ADC_Test+0x106>
    1e4e:	01 97       	sbiw	r24, 0x01	; 1
    1e50:	d9 f7       	brne	.-10     	; 0x1e48 <EF_Green_Kit_ADC_Test+0x104>
    1e52:	0e 94 e0 05 	call	0xbc0	; 0xbc0 <EF_void_UART_SendNewLine>
    1e56:	84 e1       	ldi	r24, 0x14	; 20
    1e58:	91 e0       	ldi	r25, 0x01	; 1
    1e5a:	0e 94 d3 05 	call	0xba6	; 0xba6 <EF_void_UART_SendString>
    1e5e:	0e 94 e0 05 	call	0xbc0	; 0xbc0 <EF_void_UART_SendNewLine>
    1e62:	8b ea       	ldi	r24, 0xAB	; 171
    1e64:	90 e0       	ldi	r25, 0x00	; 0
    1e66:	0e 94 d3 05 	call	0xba6	; 0xba6 <EF_void_UART_SendString>
    1e6a:	83 ef       	ldi	r24, 0xF3	; 243
    1e6c:	92 e0       	ldi	r25, 0x02	; 2
    1e6e:	0e 94 d3 05 	call	0xba6	; 0xba6 <EF_void_UART_SendString>
    1e72:	0e 94 e0 05 	call	0xbc0	; 0xbc0 <EF_void_UART_SendNewLine>
    1e76:	0e 94 3d 17 	call	0x2e7a	; 0x2e7a <EF_void_LCD_Clear_Screen>
    1e7a:	80 e2       	ldi	r24, 0x20	; 32
    1e7c:	9e e4       	ldi	r25, 0x4E	; 78
    1e7e:	28 ec       	ldi	r18, 0xC8	; 200
    1e80:	30 e0       	ldi	r19, 0x00	; 0
    1e82:	f9 01       	movw	r30, r18
    1e84:	31 97       	sbiw	r30, 0x01	; 1
    1e86:	f1 f7       	brne	.-4      	; 0x1e84 <EF_Green_Kit_ADC_Test+0x140>
    1e88:	01 97       	sbiw	r24, 0x01	; 1
    1e8a:	d9 f7       	brne	.-10     	; 0x1e82 <EF_Green_Kit_ADC_Test+0x13e>
    1e8c:	8c e0       	ldi	r24, 0x0C	; 12
    1e8e:	93 e0       	ldi	r25, 0x03	; 3
    1e90:	0e 94 17 17 	call	0x2e2e	; 0x2e2e <EF_void_LCD_print>
    1e94:	80 e1       	ldi	r24, 0x10	; 16
    1e96:	97 e2       	ldi	r25, 0x27	; 39
    1e98:	28 ec       	ldi	r18, 0xC8	; 200
    1e9a:	30 e0       	ldi	r19, 0x00	; 0
    1e9c:	f9 01       	movw	r30, r18
    1e9e:	31 97       	sbiw	r30, 0x01	; 1
    1ea0:	f1 f7       	brne	.-4      	; 0x1e9e <EF_Green_Kit_ADC_Test+0x15a>
    1ea2:	01 97       	sbiw	r24, 0x01	; 1
    1ea4:	d9 f7       	brne	.-10     	; 0x1e9c <EF_Green_Kit_ADC_Test+0x158>
    1ea6:	c0 e0       	ldi	r28, 0x00	; 0
    1ea8:	d0 e0       	ldi	r29, 0x00	; 0
    1eaa:	e8 ec       	ldi	r30, 0xC8	; 200
    1eac:	ee 2e       	mov	r14, r30
    1eae:	f1 2c       	mov	r15, r1
    1eb0:	0e 94 3d 17 	call	0x2e7a	; 0x2e7a <EF_void_LCD_Clear_Screen>
    1eb4:	81 e0       	ldi	r24, 0x01	; 1
    1eb6:	61 e0       	ldi	r22, 0x01	; 1
    1eb8:	0e 94 f6 16 	call	0x2dec	; 0x2dec <EF_void_LCD_goto>
    1ebc:	89 e1       	ldi	r24, 0x19	; 25
    1ebe:	93 e0       	ldi	r25, 0x03	; 3
    1ec0:	0e 94 17 17 	call	0x2e2e	; 0x2e2e <EF_void_LCD_print>
    1ec4:	86 e0       	ldi	r24, 0x06	; 6
    1ec6:	0e 94 80 00 	call	0x100	; 0x100 <EF_u16_ADC_read>
    1eca:	8c 01       	movw	r16, r24
    1ecc:	62 e0       	ldi	r22, 0x02	; 2
    1ece:	0e 94 cc 17 	call	0x2f98	; 0x2f98 <EF_void_LCD_print_NUM>
    1ed2:	88 e8       	ldi	r24, 0x88	; 136
    1ed4:	93 e1       	ldi	r25, 0x13	; 19
    1ed6:	f7 01       	movw	r30, r14
    1ed8:	31 97       	sbiw	r30, 0x01	; 1
    1eda:	f1 f7       	brne	.-4      	; 0x1ed8 <EF_Green_Kit_ADC_Test+0x194>
    1edc:	01 97       	sbiw	r24, 0x01	; 1
    1ede:	d9 f7       	brne	.-10     	; 0x1ed6 <EF_Green_Kit_ADC_Test+0x192>
    1ee0:	8b ea       	ldi	r24, 0xAB	; 171
    1ee2:	90 e0       	ldi	r25, 0x00	; 0
    1ee4:	0e 94 d3 05 	call	0xba6	; 0xba6 <EF_void_UART_SendString>
    1ee8:	88 e2       	ldi	r24, 0x28	; 40
    1eea:	93 e0       	ldi	r25, 0x03	; 3
    1eec:	0e 94 d3 05 	call	0xba6	; 0xba6 <EF_void_UART_SendString>
    1ef0:	c8 01       	movw	r24, r16
    1ef2:	0e 94 5f 06 	call	0xcbe	; 0xcbe <EF_void_UART_Send_Integer>
    1ef6:	0e 94 e0 05 	call	0xbc0	; 0xbc0 <EF_void_UART_SendNewLine>
    1efa:	21 96       	adiw	r28, 0x01	; 1
    1efc:	cc 30       	cpi	r28, 0x0C	; 12
    1efe:	d1 05       	cpc	r29, r1
    1f00:	b9 f6       	brne	.-82     	; 0x1eb0 <EF_Green_Kit_ADC_Test+0x16c>
    1f02:	0e 94 e0 05 	call	0xbc0	; 0xbc0 <EF_void_UART_SendNewLine>
    1f06:	8b ea       	ldi	r24, 0xAB	; 171
    1f08:	90 e0       	ldi	r25, 0x00	; 0
    1f0a:	0e 94 d3 05 	call	0xba6	; 0xba6 <EF_void_UART_SendString>
    1f0e:	87 e3       	ldi	r24, 0x37	; 55
    1f10:	93 e0       	ldi	r25, 0x03	; 3
    1f12:	0e 94 d3 05 	call	0xba6	; 0xba6 <EF_void_UART_SendString>
    1f16:	80 e2       	ldi	r24, 0x20	; 32
    1f18:	9e e4       	ldi	r25, 0x4E	; 78
    1f1a:	28 ec       	ldi	r18, 0xC8	; 200
    1f1c:	30 e0       	ldi	r19, 0x00	; 0
    1f1e:	f9 01       	movw	r30, r18
    1f20:	31 97       	sbiw	r30, 0x01	; 1
    1f22:	f1 f7       	brne	.-4      	; 0x1f20 <EF_Green_Kit_ADC_Test+0x1dc>
    1f24:	01 97       	sbiw	r24, 0x01	; 1
    1f26:	d9 f7       	brne	.-10     	; 0x1f1e <EF_Green_Kit_ADC_Test+0x1da>
    1f28:	0e 94 e0 05 	call	0xbc0	; 0xbc0 <EF_void_UART_SendNewLine>
    1f2c:	84 e1       	ldi	r24, 0x14	; 20
    1f2e:	91 e0       	ldi	r25, 0x01	; 1
    1f30:	0e 94 d3 05 	call	0xba6	; 0xba6 <EF_void_UART_SendString>
    1f34:	0e 94 e0 05 	call	0xbc0	; 0xbc0 <EF_void_UART_SendNewLine>
    1f38:	8b ea       	ldi	r24, 0xAB	; 171
    1f3a:	90 e0       	ldi	r25, 0x00	; 0
    1f3c:	0e 94 d3 05 	call	0xba6	; 0xba6 <EF_void_UART_SendString>
    1f40:	80 e5       	ldi	r24, 0x50	; 80
    1f42:	93 e0       	ldi	r25, 0x03	; 3
    1f44:	0e 94 d3 05 	call	0xba6	; 0xba6 <EF_void_UART_SendString>
    1f48:	0e 94 e0 05 	call	0xbc0	; 0xbc0 <EF_void_UART_SendNewLine>
    1f4c:	0e 94 3d 17 	call	0x2e7a	; 0x2e7a <EF_void_LCD_Clear_Screen>
    1f50:	80 e2       	ldi	r24, 0x20	; 32
    1f52:	9e e4       	ldi	r25, 0x4E	; 78
    1f54:	28 ec       	ldi	r18, 0xC8	; 200
    1f56:	30 e0       	ldi	r19, 0x00	; 0
    1f58:	f9 01       	movw	r30, r18
    1f5a:	31 97       	sbiw	r30, 0x01	; 1
    1f5c:	f1 f7       	brne	.-4      	; 0x1f5a <EF_Green_Kit_ADC_Test+0x216>
    1f5e:	01 97       	sbiw	r24, 0x01	; 1
    1f60:	d9 f7       	brne	.-10     	; 0x1f58 <EF_Green_Kit_ADC_Test+0x214>
    1f62:	0e 94 3d 17 	call	0x2e7a	; 0x2e7a <EF_void_LCD_Clear_Screen>
    1f66:	81 e6       	ldi	r24, 0x61	; 97
    1f68:	93 e0       	ldi	r25, 0x03	; 3
    1f6a:	0e 94 17 17 	call	0x2e2e	; 0x2e2e <EF_void_LCD_print>
    1f6e:	c0 e0       	ldi	r28, 0x00	; 0
    1f70:	d0 e0       	ldi	r29, 0x00	; 0
    1f72:	78 ec       	ldi	r23, 0xC8	; 200
    1f74:	e7 2e       	mov	r14, r23
    1f76:	f1 2c       	mov	r15, r1
    1f78:	0e 94 3d 17 	call	0x2e7a	; 0x2e7a <EF_void_LCD_Clear_Screen>
    1f7c:	81 e0       	ldi	r24, 0x01	; 1
    1f7e:	61 e0       	ldi	r22, 0x01	; 1
    1f80:	0e 94 f6 16 	call	0x2dec	; 0x2dec <EF_void_LCD_goto>
    1f84:	8d e6       	ldi	r24, 0x6D	; 109
    1f86:	93 e0       	ldi	r25, 0x03	; 3
    1f88:	0e 94 17 17 	call	0x2e2e	; 0x2e2e <EF_void_LCD_print>
    1f8c:	82 e0       	ldi	r24, 0x02	; 2
    1f8e:	0e 94 80 00 	call	0x100	; 0x100 <EF_u16_ADC_read>
    1f92:	8c 01       	movw	r16, r24
    1f94:	62 e0       	ldi	r22, 0x02	; 2
    1f96:	0e 94 cc 17 	call	0x2f98	; 0x2f98 <EF_void_LCD_print_NUM>
    1f9a:	88 e8       	ldi	r24, 0x88	; 136
    1f9c:	93 e1       	ldi	r25, 0x13	; 19
    1f9e:	f7 01       	movw	r30, r14
    1fa0:	31 97       	sbiw	r30, 0x01	; 1
    1fa2:	f1 f7       	brne	.-4      	; 0x1fa0 <EF_Green_Kit_ADC_Test+0x25c>
    1fa4:	01 97       	sbiw	r24, 0x01	; 1
    1fa6:	d9 f7       	brne	.-10     	; 0x1f9e <EF_Green_Kit_ADC_Test+0x25a>
    1fa8:	21 96       	adiw	r28, 0x01	; 1
    1faa:	8b ea       	ldi	r24, 0xAB	; 171
    1fac:	90 e0       	ldi	r25, 0x00	; 0
    1fae:	0e 94 d3 05 	call	0xba6	; 0xba6 <EF_void_UART_SendString>
    1fb2:	84 e7       	ldi	r24, 0x74	; 116
    1fb4:	93 e0       	ldi	r25, 0x03	; 3
    1fb6:	0e 94 d3 05 	call	0xba6	; 0xba6 <EF_void_UART_SendString>
    1fba:	c8 01       	movw	r24, r16
    1fbc:	0e 94 5f 06 	call	0xcbe	; 0xcbe <EF_void_UART_Send_Integer>
    1fc0:	0e 94 e0 05 	call	0xbc0	; 0xbc0 <EF_void_UART_SendNewLine>
    1fc4:	cc 30       	cpi	r28, 0x0C	; 12
    1fc6:	d1 05       	cpc	r29, r1
    1fc8:	b9 f6       	brne	.-82     	; 0x1f78 <EF_Green_Kit_ADC_Test+0x234>
    1fca:	80 e2       	ldi	r24, 0x20	; 32
    1fcc:	9e e4       	ldi	r25, 0x4E	; 78
    1fce:	28 ec       	ldi	r18, 0xC8	; 200
    1fd0:	30 e0       	ldi	r19, 0x00	; 0
    1fd2:	f9 01       	movw	r30, r18
    1fd4:	31 97       	sbiw	r30, 0x01	; 1
    1fd6:	f1 f7       	brne	.-4      	; 0x1fd4 <EF_Green_Kit_ADC_Test+0x290>
    1fd8:	01 97       	sbiw	r24, 0x01	; 1
    1fda:	d9 f7       	brne	.-10     	; 0x1fd2 <EF_Green_Kit_ADC_Test+0x28e>
    1fdc:	0e 94 3d 17 	call	0x2e7a	; 0x2e7a <EF_void_LCD_Clear_Screen>
    1fe0:	8b e7       	ldi	r24, 0x7B	; 123
    1fe2:	93 e0       	ldi	r25, 0x03	; 3
    1fe4:	0e 94 17 17 	call	0x2e2e	; 0x2e2e <EF_void_LCD_print>
    1fe8:	80 e2       	ldi	r24, 0x20	; 32
    1fea:	9e e4       	ldi	r25, 0x4E	; 78
    1fec:	28 ec       	ldi	r18, 0xC8	; 200
    1fee:	30 e0       	ldi	r19, 0x00	; 0
    1ff0:	f9 01       	movw	r30, r18
    1ff2:	31 97       	sbiw	r30, 0x01	; 1
    1ff4:	f1 f7       	brne	.-4      	; 0x1ff2 <EF_Green_Kit_ADC_Test+0x2ae>
    1ff6:	01 97       	sbiw	r24, 0x01	; 1
    1ff8:	d9 f7       	brne	.-10     	; 0x1ff0 <EF_Green_Kit_ADC_Test+0x2ac>
    1ffa:	0e 94 e0 05 	call	0xbc0	; 0xbc0 <EF_void_UART_SendNewLine>
    1ffe:	8b ea       	ldi	r24, 0xAB	; 171
    2000:	90 e0       	ldi	r25, 0x00	; 0
    2002:	0e 94 d3 05 	call	0xba6	; 0xba6 <EF_void_UART_SendString>
    2006:	86 e8       	ldi	r24, 0x86	; 134
    2008:	93 e0       	ldi	r25, 0x03	; 3
    200a:	0e 94 d3 05 	call	0xba6	; 0xba6 <EF_void_UART_SendString>
    200e:	0e 94 e0 05 	call	0xbc0	; 0xbc0 <EF_void_UART_SendNewLine>
    2012:	80 e2       	ldi	r24, 0x20	; 32
    2014:	9e e4       	ldi	r25, 0x4E	; 78
    2016:	28 ec       	ldi	r18, 0xC8	; 200
    2018:	30 e0       	ldi	r19, 0x00	; 0
    201a:	f9 01       	movw	r30, r18
    201c:	31 97       	sbiw	r30, 0x01	; 1
    201e:	f1 f7       	brne	.-4      	; 0x201c <EF_Green_Kit_ADC_Test+0x2d8>
    2020:	01 97       	sbiw	r24, 0x01	; 1
    2022:	d9 f7       	brne	.-10     	; 0x201a <EF_Green_Kit_ADC_Test+0x2d6>
    2024:	84 e1       	ldi	r24, 0x14	; 20
    2026:	91 e0       	ldi	r25, 0x01	; 1
    2028:	0e 94 d3 05 	call	0xba6	; 0xba6 <EF_void_UART_SendString>
    202c:	0e 94 e0 05 	call	0xbc0	; 0xbc0 <EF_void_UART_SendNewLine>
    2030:	8b ea       	ldi	r24, 0xAB	; 171
    2032:	90 e0       	ldi	r25, 0x00	; 0
    2034:	0e 94 d3 05 	call	0xba6	; 0xba6 <EF_void_UART_SendString>
    2038:	87 e9       	ldi	r24, 0x97	; 151
    203a:	93 e0       	ldi	r25, 0x03	; 3
    203c:	0e 94 d3 05 	call	0xba6	; 0xba6 <EF_void_UART_SendString>
    2040:	0e 94 e0 05 	call	0xbc0	; 0xbc0 <EF_void_UART_SendNewLine>
    2044:	86 e8       	ldi	r24, 0x86	; 134
    2046:	90 e0       	ldi	r25, 0x00	; 0
    2048:	0e 94 d3 05 	call	0xba6	; 0xba6 <EF_void_UART_SendString>
    204c:	df 91       	pop	r29
    204e:	cf 91       	pop	r28
    2050:	1f 91       	pop	r17
    2052:	0f 91       	pop	r16
    2054:	ff 90       	pop	r15
    2056:	ef 90       	pop	r14
    2058:	08 95       	ret

0000205a <EF_Green_Kit_7Seg_Test>:
    205a:	ef 92       	push	r14
    205c:	ff 92       	push	r15
    205e:	0f 93       	push	r16
    2060:	1f 93       	push	r17
    2062:	cf 93       	push	r28
    2064:	df 93       	push	r29
    2066:	0e 94 e0 05 	call	0xbc0	; 0xbc0 <EF_void_UART_SendNewLine>
    206a:	86 e8       	ldi	r24, 0x86	; 134
    206c:	90 e0       	ldi	r25, 0x00	; 0
    206e:	0e 94 d3 05 	call	0xba6	; 0xba6 <EF_void_UART_SendString>
    2072:	0e 94 e0 05 	call	0xbc0	; 0xbc0 <EF_void_UART_SendNewLine>
    2076:	8b ea       	ldi	r24, 0xAB	; 171
    2078:	90 e0       	ldi	r25, 0x00	; 0
    207a:	0e 94 d3 05 	call	0xba6	; 0xba6 <EF_void_UART_SendString>
    207e:	88 ea       	ldi	r24, 0xA8	; 168
    2080:	93 e0       	ldi	r25, 0x03	; 3
    2082:	0e 94 d3 05 	call	0xba6	; 0xba6 <EF_void_UART_SendString>
    2086:	0e 94 32 08 	call	0x1064	; 0x1064 <EF_void_Segment_Init>
    208a:	0e 94 3d 17 	call	0x2e7a	; 0x2e7a <EF_void_LCD_Clear_Screen>
    208e:	81 e0       	ldi	r24, 0x01	; 1
    2090:	61 e0       	ldi	r22, 0x01	; 1
    2092:	0e 94 f6 16 	call	0x2dec	; 0x2dec <EF_void_LCD_goto>
    2096:	80 91 53 05 	lds	r24, 0x0553
    209a:	90 91 54 05 	lds	r25, 0x0554
    209e:	0e 94 17 17 	call	0x2e2e	; 0x2e2e <EF_void_LCD_print>
    20a2:	00 e0       	ldi	r16, 0x00	; 0
    20a4:	10 e0       	ldi	r17, 0x00	; 0
    20a6:	c0 e0       	ldi	r28, 0x00	; 0
    20a8:	d0 e0       	ldi	r29, 0x00	; 0
    20aa:	ee 24       	eor	r14, r14
    20ac:	ff 24       	eor	r15, r15
    20ae:	06 c0       	rjmp	.+12     	; 0x20bc <EF_Green_Kit_7Seg_Test+0x62>
    20b0:	21 96       	adiw	r28, 0x01	; 1
    20b2:	ca 31       	cpi	r28, 0x1A	; 26
    20b4:	d1 05       	cpc	r29, r1
    20b6:	10 f0       	brcs	.+4      	; 0x20bc <EF_Green_Kit_7Seg_Test+0x62>
    20b8:	09 5a       	subi	r16, 0xA9	; 169
    20ba:	1b 4f       	sbci	r17, 0xFB	; 251
    20bc:	c8 01       	movw	r24, r16
    20be:	67 e5       	ldi	r22, 0x57	; 87
    20c0:	74 e0       	ldi	r23, 0x04	; 4
    20c2:	0e 94 bb 1a 	call	0x3576	; 0x3576 <__udivmodhi4>
    20c6:	89 2b       	or	r24, r25
    20c8:	51 f4       	brne	.+20     	; 0x20de <EF_Green_Kit_7Seg_Test+0x84>
    20ca:	ca 31       	cpi	r28, 0x1A	; 26
    20cc:	d1 05       	cpc	r29, r1
    20ce:	38 f0       	brcs	.+14     	; 0x20de <EF_Green_Kit_7Seg_Test+0x84>
    20d0:	8d ec       	ldi	r24, 0xCD	; 205
    20d2:	90 e0       	ldi	r25, 0x00	; 0
    20d4:	0e 94 d3 05 	call	0xba6	; 0xba6 <EF_void_UART_SendString>
    20d8:	78 01       	movw	r14, r16
    20da:	c0 e0       	ldi	r28, 0x00	; 0
    20dc:	d0 e0       	ldi	r29, 0x00	; 0
    20de:	c7 01       	movw	r24, r14
    20e0:	0e 94 97 07 	call	0xf2e	; 0xf2e <EF_void_Segment_Display>
    20e4:	87 e2       	ldi	r24, 0x27	; 39
    20e6:	00 31       	cpi	r16, 0x10	; 16
    20e8:	18 07       	cpc	r17, r24
    20ea:	10 f3       	brcs	.-60     	; 0x20b0 <EF_Green_Kit_7Seg_Test+0x56>
    20ec:	0e 94 3d 17 	call	0x2e7a	; 0x2e7a <EF_void_LCD_Clear_Screen>
    20f0:	8b eb       	ldi	r24, 0xBB	; 187
    20f2:	93 e0       	ldi	r25, 0x03	; 3
    20f4:	0e 94 17 17 	call	0x2e2e	; 0x2e2e <EF_void_LCD_print>
    20f8:	80 ee       	ldi	r24, 0xE0	; 224
    20fa:	9e e2       	ldi	r25, 0x2E	; 46
    20fc:	28 ec       	ldi	r18, 0xC8	; 200
    20fe:	30 e0       	ldi	r19, 0x00	; 0
    2100:	f9 01       	movw	r30, r18
    2102:	31 97       	sbiw	r30, 0x01	; 1
    2104:	f1 f7       	brne	.-4      	; 0x2102 <EF_Green_Kit_7Seg_Test+0xa8>
    2106:	01 97       	sbiw	r24, 0x01	; 1
    2108:	d9 f7       	brne	.-10     	; 0x2100 <EF_Green_Kit_7Seg_Test+0xa6>
    210a:	0e 94 e0 05 	call	0xbc0	; 0xbc0 <EF_void_UART_SendNewLine>
    210e:	85 e1       	ldi	r24, 0x15	; 21
    2110:	92 e0       	ldi	r25, 0x02	; 2
    2112:	0e 94 d3 05 	call	0xba6	; 0xba6 <EF_void_UART_SendString>
    2116:	87 ec       	ldi	r24, 0xC7	; 199
    2118:	93 e0       	ldi	r25, 0x03	; 3
    211a:	0e 94 d3 05 	call	0xba6	; 0xba6 <EF_void_UART_SendString>
    211e:	0e 94 e0 05 	call	0xbc0	; 0xbc0 <EF_void_UART_SendNewLine>
    2122:	86 e8       	ldi	r24, 0x86	; 134
    2124:	90 e0       	ldi	r25, 0x00	; 0
    2126:	0e 94 d3 05 	call	0xba6	; 0xba6 <EF_void_UART_SendString>
    212a:	df 91       	pop	r29
    212c:	cf 91       	pop	r28
    212e:	1f 91       	pop	r17
    2130:	0f 91       	pop	r16
    2132:	ff 90       	pop	r15
    2134:	ef 90       	pop	r14
    2136:	08 95       	ret

00002138 <EF_Green_Kit_screen2>:
    2138:	81 e0       	ldi	r24, 0x01	; 1
    213a:	61 e0       	ldi	r22, 0x01	; 1
    213c:	0e 94 f6 16 	call	0x2dec	; 0x2dec <EF_void_LCD_goto>
    2140:	80 91 43 05 	lds	r24, 0x0543
    2144:	90 91 44 05 	lds	r25, 0x0544
    2148:	0e 94 17 17 	call	0x2e2e	; 0x2e2e <EF_void_LCD_print>
    214c:	82 e0       	ldi	r24, 0x02	; 2
    214e:	61 e0       	ldi	r22, 0x01	; 1
    2150:	0e 94 f6 16 	call	0x2dec	; 0x2dec <EF_void_LCD_goto>
    2154:	80 91 45 05 	lds	r24, 0x0545
    2158:	90 91 46 05 	lds	r25, 0x0546
    215c:	0e 94 17 17 	call	0x2e2e	; 0x2e2e <EF_void_LCD_print>
    2160:	0e 94 7b 16 	call	0x2cf6	; 0x2cf6 <EF_void_KeyPad_Init>
    2164:	0e 94 0b 16 	call	0x2c16	; 0x2c16 <EF_u8_KeyPad_Scan>
    2168:	83 30       	cpi	r24, 0x03	; 3
    216a:	29 f0       	breq	.+10     	; 0x2176 <EF_Green_Kit_screen2+0x3e>
    216c:	0e 94 0b 16 	call	0x2c16	; 0x2c16 <EF_u8_KeyPad_Scan>
    2170:	84 30       	cpi	r24, 0x04	; 4
    2172:	09 f0       	breq	.+2      	; 0x2176 <EF_Green_Kit_screen2+0x3e>
    2174:	7f c0       	rjmp	.+254    	; 0x2274 <EF_Green_Kit_screen2+0x13c>
    2176:	0e 94 0b 16 	call	0x2c16	; 0x2c16 <EF_u8_KeyPad_Scan>
    217a:	84 30       	cpi	r24, 0x04	; 4
    217c:	f1 f1       	breq	.+124    	; 0x21fa <EF_Green_Kit_screen2+0xc2>
    217e:	89 30       	cpi	r24, 0x09	; 9
    2180:	09 f4       	brne	.+2      	; 0x2184 <EF_Green_Kit_screen2+0x4c>
    2182:	76 c0       	rjmp	.+236    	; 0x2270 <EF_Green_Kit_screen2+0x138>
    2184:	83 30       	cpi	r24, 0x03	; 3
    2186:	b9 f7       	brne	.-18     	; 0x2176 <EF_Green_Kit_screen2+0x3e>
    2188:	0e 94 2d 10 	call	0x205a	; 0x205a <EF_Green_Kit_7Seg_Test>
    218c:	0e 94 e0 05 	call	0xbc0	; 0xbc0 <EF_void_UART_SendNewLine>
    2190:	8b ea       	ldi	r24, 0xAB	; 171
    2192:	90 e0       	ldi	r25, 0x00	; 0
    2194:	0e 94 d3 05 	call	0xba6	; 0xba6 <EF_void_UART_SendString>
    2198:	80 91 4d 05 	lds	r24, 0x054D
    219c:	90 91 4e 05 	lds	r25, 0x054E
    21a0:	0e 94 d3 05 	call	0xba6	; 0xba6 <EF_void_UART_SendString>
    21a4:	0e 94 e0 05 	call	0xbc0	; 0xbc0 <EF_void_UART_SendNewLine>
    21a8:	84 e1       	ldi	r24, 0x14	; 20
    21aa:	91 e0       	ldi	r25, 0x01	; 1
    21ac:	0e 94 d3 05 	call	0xba6	; 0xba6 <EF_void_UART_SendString>
    21b0:	0e 94 e0 05 	call	0xbc0	; 0xbc0 <EF_void_UART_SendNewLine>
    21b4:	8b ea       	ldi	r24, 0xAB	; 171
    21b6:	90 e0       	ldi	r25, 0x00	; 0
    21b8:	0e 94 d3 05 	call	0xba6	; 0xba6 <EF_void_UART_SendString>
    21bc:	8e ed       	ldi	r24, 0xDE	; 222
    21be:	93 e0       	ldi	r25, 0x03	; 3
    21c0:	0e 94 d3 05 	call	0xba6	; 0xba6 <EF_void_UART_SendString>
    21c4:	0e 94 e0 05 	call	0xbc0	; 0xbc0 <EF_void_UART_SendNewLine>
    21c8:	86 e8       	ldi	r24, 0x86	; 134
    21ca:	90 e0       	ldi	r25, 0x00	; 0
    21cc:	0e 94 d3 05 	call	0xba6	; 0xba6 <EF_void_UART_SendString>
    21d0:	0e 94 e0 05 	call	0xbc0	; 0xbc0 <EF_void_UART_SendNewLine>
    21d4:	0e 94 3d 17 	call	0x2e7a	; 0x2e7a <EF_void_LCD_Clear_Screen>
    21d8:	81 e0       	ldi	r24, 0x01	; 1
    21da:	61 e0       	ldi	r22, 0x01	; 1
    21dc:	0e 94 f6 16 	call	0x2dec	; 0x2dec <EF_void_LCD_goto>
    21e0:	80 91 4d 05 	lds	r24, 0x054D
    21e4:	90 91 4e 05 	lds	r25, 0x054E
    21e8:	0e 94 17 17 	call	0x2e2e	; 0x2e2e <EF_void_LCD_print>
    21ec:	82 e0       	ldi	r24, 0x02	; 2
    21ee:	61 e0       	ldi	r22, 0x01	; 1
    21f0:	0e 94 f6 16 	call	0x2dec	; 0x2dec <EF_void_LCD_goto>
    21f4:	8e ed       	ldi	r24, 0xDE	; 222
    21f6:	93 e0       	ldi	r25, 0x03	; 3
    21f8:	38 c0       	rjmp	.+112    	; 0x226a <EF_Green_Kit_screen2+0x132>
    21fa:	0e 94 a2 0e 	call	0x1d44	; 0x1d44 <EF_Green_Kit_ADC_Test>
    21fe:	0e 94 e0 05 	call	0xbc0	; 0xbc0 <EF_void_UART_SendNewLine>
    2202:	8b ea       	ldi	r24, 0xAB	; 171
    2204:	90 e0       	ldi	r25, 0x00	; 0
    2206:	0e 94 d3 05 	call	0xba6	; 0xba6 <EF_void_UART_SendString>
    220a:	80 91 4d 05 	lds	r24, 0x054D
    220e:	90 91 4e 05 	lds	r25, 0x054E
    2212:	0e 94 d3 05 	call	0xba6	; 0xba6 <EF_void_UART_SendString>
    2216:	0e 94 e0 05 	call	0xbc0	; 0xbc0 <EF_void_UART_SendNewLine>
    221a:	84 e1       	ldi	r24, 0x14	; 20
    221c:	91 e0       	ldi	r25, 0x01	; 1
    221e:	0e 94 d3 05 	call	0xba6	; 0xba6 <EF_void_UART_SendString>
    2222:	0e 94 e0 05 	call	0xbc0	; 0xbc0 <EF_void_UART_SendNewLine>
    2226:	8b ea       	ldi	r24, 0xAB	; 171
    2228:	90 e0       	ldi	r25, 0x00	; 0
    222a:	0e 94 d3 05 	call	0xba6	; 0xba6 <EF_void_UART_SendString>
    222e:	8e ee       	ldi	r24, 0xEE	; 238
    2230:	93 e0       	ldi	r25, 0x03	; 3
    2232:	0e 94 d3 05 	call	0xba6	; 0xba6 <EF_void_UART_SendString>
    2236:	0e 94 e0 05 	call	0xbc0	; 0xbc0 <EF_void_UART_SendNewLine>
    223a:	86 e8       	ldi	r24, 0x86	; 134
    223c:	90 e0       	ldi	r25, 0x00	; 0
    223e:	0e 94 d3 05 	call	0xba6	; 0xba6 <EF_void_UART_SendString>
    2242:	0e 94 e0 05 	call	0xbc0	; 0xbc0 <EF_void_UART_SendNewLine>
    2246:	0e 94 3d 17 	call	0x2e7a	; 0x2e7a <EF_void_LCD_Clear_Screen>
    224a:	81 e0       	ldi	r24, 0x01	; 1
    224c:	61 e0       	ldi	r22, 0x01	; 1
    224e:	0e 94 f6 16 	call	0x2dec	; 0x2dec <EF_void_LCD_goto>
    2252:	80 91 4d 05 	lds	r24, 0x054D
    2256:	90 91 4e 05 	lds	r25, 0x054E
    225a:	0e 94 17 17 	call	0x2e2e	; 0x2e2e <EF_void_LCD_print>
    225e:	82 e0       	ldi	r24, 0x02	; 2
    2260:	61 e0       	ldi	r22, 0x01	; 1
    2262:	0e 94 f6 16 	call	0x2dec	; 0x2dec <EF_void_LCD_goto>
    2266:	8e ee       	ldi	r24, 0xEE	; 238
    2268:	93 e0       	ldi	r25, 0x03	; 3
    226a:	0e 94 17 17 	call	0x2e2e	; 0x2e2e <EF_void_LCD_print>
    226e:	83 cf       	rjmp	.-250    	; 0x2176 <EF_Green_Kit_screen2+0x3e>
    2270:	0e 94 3d 17 	call	0x2e7a	; 0x2e7a <EF_void_LCD_Clear_Screen>
    2274:	08 95       	ret

00002276 <EF_Green_Kit_Buzzer_test>:
    2276:	84 e4       	ldi	r24, 0x44	; 68
    2278:	67 e0       	ldi	r22, 0x07	; 7
    227a:	41 e0       	ldi	r20, 0x01	; 1
    227c:	0e 94 0a 01 	call	0x214	; 0x214 <EF_B_DIO_InitPin>
    2280:	84 e4       	ldi	r24, 0x44	; 68
    2282:	67 e0       	ldi	r22, 0x07	; 7
    2284:	0e 94 e4 01 	call	0x3c8	; 0x3c8 <EF_S8_DIO_ClearPin>
    2288:	0e 94 e0 05 	call	0xbc0	; 0xbc0 <EF_void_UART_SendNewLine>
    228c:	86 e8       	ldi	r24, 0x86	; 134
    228e:	90 e0       	ldi	r25, 0x00	; 0
    2290:	0e 94 d3 05 	call	0xba6	; 0xba6 <EF_void_UART_SendString>
    2294:	0e 94 e0 05 	call	0xbc0	; 0xbc0 <EF_void_UART_SendNewLine>
    2298:	8e ef       	ldi	r24, 0xFE	; 254
    229a:	93 e0       	ldi	r25, 0x03	; 3
    229c:	0e 94 d3 05 	call	0xba6	; 0xba6 <EF_void_UART_SendString>
    22a0:	85 e0       	ldi	r24, 0x05	; 5
    22a2:	94 e0       	ldi	r25, 0x04	; 4
    22a4:	0e 94 d3 05 	call	0xba6	; 0xba6 <EF_void_UART_SendString>
    22a8:	0e 94 3d 17 	call	0x2e7a	; 0x2e7a <EF_void_LCD_Clear_Screen>
    22ac:	81 e0       	ldi	r24, 0x01	; 1
    22ae:	61 e0       	ldi	r22, 0x01	; 1
    22b0:	0e 94 f6 16 	call	0x2dec	; 0x2dec <EF_void_LCD_goto>
    22b4:	80 91 4f 05 	lds	r24, 0x054F
    22b8:	90 91 50 05 	lds	r25, 0x0550
    22bc:	0e 94 17 17 	call	0x2e2e	; 0x2e2e <EF_void_LCD_print>
    22c0:	80 e2       	ldi	r24, 0x20	; 32
    22c2:	9e e4       	ldi	r25, 0x4E	; 78
    22c4:	28 ec       	ldi	r18, 0xC8	; 200
    22c6:	30 e0       	ldi	r19, 0x00	; 0
    22c8:	f9 01       	movw	r30, r18
    22ca:	31 97       	sbiw	r30, 0x01	; 1
    22cc:	f1 f7       	brne	.-4      	; 0x22ca <EF_Green_Kit_Buzzer_test+0x54>
    22ce:	01 97       	sbiw	r24, 0x01	; 1
    22d0:	d9 f7       	brne	.-10     	; 0x22c8 <EF_Green_Kit_Buzzer_test+0x52>
    22d2:	8d ec       	ldi	r24, 0xCD	; 205
    22d4:	90 e0       	ldi	r25, 0x00	; 0
    22d6:	0e 94 d3 05 	call	0xba6	; 0xba6 <EF_void_UART_SendString>
    22da:	84 e4       	ldi	r24, 0x44	; 68
    22dc:	67 e0       	ldi	r22, 0x07	; 7
    22de:	0e 94 9b 01 	call	0x336	; 0x336 <EF_S8_DIO_SetPin>
    22e2:	80 e1       	ldi	r24, 0x10	; 16
    22e4:	97 e2       	ldi	r25, 0x27	; 39
    22e6:	28 ec       	ldi	r18, 0xC8	; 200
    22e8:	30 e0       	ldi	r19, 0x00	; 0
    22ea:	f9 01       	movw	r30, r18
    22ec:	31 97       	sbiw	r30, 0x01	; 1
    22ee:	f1 f7       	brne	.-4      	; 0x22ec <EF_Green_Kit_Buzzer_test+0x76>
    22f0:	01 97       	sbiw	r24, 0x01	; 1
    22f2:	d9 f7       	brne	.-10     	; 0x22ea <EF_Green_Kit_Buzzer_test+0x74>
    22f4:	8d ec       	ldi	r24, 0xCD	; 205
    22f6:	90 e0       	ldi	r25, 0x00	; 0
    22f8:	0e 94 d3 05 	call	0xba6	; 0xba6 <EF_void_UART_SendString>
    22fc:	84 e4       	ldi	r24, 0x44	; 68
    22fe:	67 e0       	ldi	r22, 0x07	; 7
    2300:	0e 94 e4 01 	call	0x3c8	; 0x3c8 <EF_S8_DIO_ClearPin>
    2304:	0e 94 3d 17 	call	0x2e7a	; 0x2e7a <EF_void_LCD_Clear_Screen>
    2308:	81 e0       	ldi	r24, 0x01	; 1
    230a:	61 e0       	ldi	r22, 0x01	; 1
    230c:	0e 94 f6 16 	call	0x2dec	; 0x2dec <EF_void_LCD_goto>
    2310:	86 e1       	ldi	r24, 0x16	; 22
    2312:	94 e0       	ldi	r25, 0x04	; 4
    2314:	0e 94 17 17 	call	0x2e2e	; 0x2e2e <EF_void_LCD_print>
    2318:	8d ec       	ldi	r24, 0xCD	; 205
    231a:	90 e0       	ldi	r25, 0x00	; 0
    231c:	0e 94 d3 05 	call	0xba6	; 0xba6 <EF_void_UART_SendString>
    2320:	0e 94 e0 05 	call	0xbc0	; 0xbc0 <EF_void_UART_SendNewLine>
    2324:	84 e1       	ldi	r24, 0x14	; 20
    2326:	91 e0       	ldi	r25, 0x01	; 1
    2328:	0e 94 d3 05 	call	0xba6	; 0xba6 <EF_void_UART_SendString>
    232c:	0e 94 e0 05 	call	0xbc0	; 0xbc0 <EF_void_UART_SendNewLine>
    2330:	85 e1       	ldi	r24, 0x15	; 21
    2332:	92 e0       	ldi	r25, 0x02	; 2
    2334:	0e 94 d3 05 	call	0xba6	; 0xba6 <EF_void_UART_SendString>
    2338:	80 e2       	ldi	r24, 0x20	; 32
    233a:	94 e0       	ldi	r25, 0x04	; 4
    233c:	0e 94 d3 05 	call	0xba6	; 0xba6 <EF_void_UART_SendString>
    2340:	0e 94 e0 05 	call	0xbc0	; 0xbc0 <EF_void_UART_SendNewLine>
    2344:	86 e8       	ldi	r24, 0x86	; 134
    2346:	90 e0       	ldi	r25, 0x00	; 0
    2348:	0e 94 d3 05 	call	0xba6	; 0xba6 <EF_void_UART_SendString>
    234c:	80 e1       	ldi	r24, 0x10	; 16
    234e:	97 e2       	ldi	r25, 0x27	; 39
    2350:	28 ec       	ldi	r18, 0xC8	; 200
    2352:	30 e0       	ldi	r19, 0x00	; 0
    2354:	f9 01       	movw	r30, r18
    2356:	31 97       	sbiw	r30, 0x01	; 1
    2358:	f1 f7       	brne	.-4      	; 0x2356 <EF_Green_Kit_Buzzer_test+0xe0>
    235a:	01 97       	sbiw	r24, 0x01	; 1
    235c:	d9 f7       	brne	.-10     	; 0x2354 <EF_Green_Kit_Buzzer_test+0xde>
    235e:	08 95       	ret

00002360 <EF_Green_Kit_Leds_Relay_test>:
    2360:	84 e4       	ldi	r24, 0x44	; 68
    2362:	64 e0       	ldi	r22, 0x04	; 4
    2364:	41 e0       	ldi	r20, 0x01	; 1
    2366:	0e 94 0a 01 	call	0x214	; 0x214 <EF_B_DIO_InitPin>
    236a:	84 e4       	ldi	r24, 0x44	; 68
    236c:	65 e0       	ldi	r22, 0x05	; 5
    236e:	41 e0       	ldi	r20, 0x01	; 1
    2370:	0e 94 0a 01 	call	0x214	; 0x214 <EF_B_DIO_InitPin>
    2374:	84 e4       	ldi	r24, 0x44	; 68
    2376:	66 e0       	ldi	r22, 0x06	; 6
    2378:	41 e0       	ldi	r20, 0x01	; 1
    237a:	0e 94 0a 01 	call	0x214	; 0x214 <EF_B_DIO_InitPin>
    237e:	84 e4       	ldi	r24, 0x44	; 68
    2380:	67 e0       	ldi	r22, 0x07	; 7
    2382:	41 e0       	ldi	r20, 0x01	; 1
    2384:	0e 94 0a 01 	call	0x214	; 0x214 <EF_B_DIO_InitPin>
    2388:	84 e4       	ldi	r24, 0x44	; 68
    238a:	67 e0       	ldi	r22, 0x07	; 7
    238c:	41 e0       	ldi	r20, 0x01	; 1
    238e:	0e 94 0a 01 	call	0x214	; 0x214 <EF_B_DIO_InitPin>
    2392:	84 e4       	ldi	r24, 0x44	; 68
    2394:	64 e0       	ldi	r22, 0x04	; 4
    2396:	0e 94 9b 01 	call	0x336	; 0x336 <EF_S8_DIO_SetPin>
    239a:	84 e4       	ldi	r24, 0x44	; 68
    239c:	67 e0       	ldi	r22, 0x07	; 7
    239e:	0e 94 e4 01 	call	0x3c8	; 0x3c8 <EF_S8_DIO_ClearPin>
    23a2:	84 e4       	ldi	r24, 0x44	; 68
    23a4:	65 e0       	ldi	r22, 0x05	; 5
    23a6:	0e 94 9b 01 	call	0x336	; 0x336 <EF_S8_DIO_SetPin>
    23aa:	84 e4       	ldi	r24, 0x44	; 68
    23ac:	66 e0       	ldi	r22, 0x06	; 6
    23ae:	0e 94 9b 01 	call	0x336	; 0x336 <EF_S8_DIO_SetPin>
    23b2:	84 e4       	ldi	r24, 0x44	; 68
    23b4:	67 e0       	ldi	r22, 0x07	; 7
    23b6:	0e 94 9b 01 	call	0x336	; 0x336 <EF_S8_DIO_SetPin>
    23ba:	0e 94 3d 17 	call	0x2e7a	; 0x2e7a <EF_void_LCD_Clear_Screen>
    23be:	81 e0       	ldi	r24, 0x01	; 1
    23c0:	61 e0       	ldi	r22, 0x01	; 1
    23c2:	0e 94 f6 16 	call	0x2dec	; 0x2dec <EF_void_LCD_goto>
    23c6:	80 91 4b 05 	lds	r24, 0x054B
    23ca:	90 91 4c 05 	lds	r25, 0x054C
    23ce:	0e 94 17 17 	call	0x2e2e	; 0x2e2e <EF_void_LCD_print>
    23d2:	82 e0       	ldi	r24, 0x02	; 2
    23d4:	64 e0       	ldi	r22, 0x04	; 4
    23d6:	0e 94 f6 16 	call	0x2dec	; 0x2dec <EF_void_LCD_goto>
    23da:	85 e3       	ldi	r24, 0x35	; 53
    23dc:	94 e0       	ldi	r25, 0x04	; 4
    23de:	0e 94 17 17 	call	0x2e2e	; 0x2e2e <EF_void_LCD_print>
    23e2:	80 e7       	ldi	r24, 0x70	; 112
    23e4:	97 e1       	ldi	r25, 0x17	; 23
    23e6:	28 ec       	ldi	r18, 0xC8	; 200
    23e8:	30 e0       	ldi	r19, 0x00	; 0
    23ea:	f9 01       	movw	r30, r18
    23ec:	31 97       	sbiw	r30, 0x01	; 1
    23ee:	f1 f7       	brne	.-4      	; 0x23ec <EF_Green_Kit_Leds_Relay_test+0x8c>
    23f0:	01 97       	sbiw	r24, 0x01	; 1
    23f2:	d9 f7       	brne	.-10     	; 0x23ea <EF_Green_Kit_Leds_Relay_test+0x8a>
    23f4:	84 e4       	ldi	r24, 0x44	; 68
    23f6:	64 e0       	ldi	r22, 0x04	; 4
    23f8:	0e 94 e4 01 	call	0x3c8	; 0x3c8 <EF_S8_DIO_ClearPin>
    23fc:	84 e4       	ldi	r24, 0x44	; 68
    23fe:	65 e0       	ldi	r22, 0x05	; 5
    2400:	0e 94 e4 01 	call	0x3c8	; 0x3c8 <EF_S8_DIO_ClearPin>
    2404:	84 e4       	ldi	r24, 0x44	; 68
    2406:	66 e0       	ldi	r22, 0x06	; 6
    2408:	0e 94 e4 01 	call	0x3c8	; 0x3c8 <EF_S8_DIO_ClearPin>
    240c:	84 e4       	ldi	r24, 0x44	; 68
    240e:	67 e0       	ldi	r22, 0x07	; 7
    2410:	0e 94 e4 01 	call	0x3c8	; 0x3c8 <EF_S8_DIO_ClearPin>
    2414:	80 e1       	ldi	r24, 0x10	; 16
    2416:	97 e2       	ldi	r25, 0x27	; 39
    2418:	28 ec       	ldi	r18, 0xC8	; 200
    241a:	30 e0       	ldi	r19, 0x00	; 0
    241c:	f9 01       	movw	r30, r18
    241e:	31 97       	sbiw	r30, 0x01	; 1
    2420:	f1 f7       	brne	.-4      	; 0x241e <EF_Green_Kit_Leds_Relay_test+0xbe>
    2422:	01 97       	sbiw	r24, 0x01	; 1
    2424:	d9 f7       	brne	.-10     	; 0x241c <EF_Green_Kit_Leds_Relay_test+0xbc>
    2426:	84 e4       	ldi	r24, 0x44	; 68
    2428:	66 e0       	ldi	r22, 0x06	; 6
    242a:	0e 94 9b 01 	call	0x336	; 0x336 <EF_S8_DIO_SetPin>
    242e:	84 e4       	ldi	r24, 0x44	; 68
    2430:	67 e0       	ldi	r22, 0x07	; 7
    2432:	0e 94 9b 01 	call	0x336	; 0x336 <EF_S8_DIO_SetPin>
    2436:	84 e4       	ldi	r24, 0x44	; 68
    2438:	64 e0       	ldi	r22, 0x04	; 4
    243a:	0e 94 9b 01 	call	0x336	; 0x336 <EF_S8_DIO_SetPin>
    243e:	84 e4       	ldi	r24, 0x44	; 68
    2440:	65 e0       	ldi	r22, 0x05	; 5
    2442:	0e 94 9b 01 	call	0x336	; 0x336 <EF_S8_DIO_SetPin>
    2446:	80 e1       	ldi	r24, 0x10	; 16
    2448:	97 e2       	ldi	r25, 0x27	; 39
    244a:	28 ec       	ldi	r18, 0xC8	; 200
    244c:	30 e0       	ldi	r19, 0x00	; 0
    244e:	f9 01       	movw	r30, r18
    2450:	31 97       	sbiw	r30, 0x01	; 1
    2452:	f1 f7       	brne	.-4      	; 0x2450 <EF_Green_Kit_Leds_Relay_test+0xf0>
    2454:	01 97       	sbiw	r24, 0x01	; 1
    2456:	d9 f7       	brne	.-10     	; 0x244e <EF_Green_Kit_Leds_Relay_test+0xee>
    2458:	84 e4       	ldi	r24, 0x44	; 68
    245a:	64 e0       	ldi	r22, 0x04	; 4
    245c:	0e 94 e4 01 	call	0x3c8	; 0x3c8 <EF_S8_DIO_ClearPin>
    2460:	84 e4       	ldi	r24, 0x44	; 68
    2462:	65 e0       	ldi	r22, 0x05	; 5
    2464:	0e 94 e4 01 	call	0x3c8	; 0x3c8 <EF_S8_DIO_ClearPin>
    2468:	84 e4       	ldi	r24, 0x44	; 68
    246a:	66 e0       	ldi	r22, 0x06	; 6
    246c:	0e 94 e4 01 	call	0x3c8	; 0x3c8 <EF_S8_DIO_ClearPin>
    2470:	84 e4       	ldi	r24, 0x44	; 68
    2472:	67 e0       	ldi	r22, 0x07	; 7
    2474:	0e 94 e4 01 	call	0x3c8	; 0x3c8 <EF_S8_DIO_ClearPin>
    2478:	80 e1       	ldi	r24, 0x10	; 16
    247a:	97 e2       	ldi	r25, 0x27	; 39
    247c:	28 ec       	ldi	r18, 0xC8	; 200
    247e:	30 e0       	ldi	r19, 0x00	; 0
    2480:	f9 01       	movw	r30, r18
    2482:	31 97       	sbiw	r30, 0x01	; 1
    2484:	f1 f7       	brne	.-4      	; 0x2482 <EF_Green_Kit_Leds_Relay_test+0x122>
    2486:	01 97       	sbiw	r24, 0x01	; 1
    2488:	d9 f7       	brne	.-10     	; 0x2480 <EF_Green_Kit_Leds_Relay_test+0x120>
    248a:	84 e4       	ldi	r24, 0x44	; 68
    248c:	66 e0       	ldi	r22, 0x06	; 6
    248e:	0e 94 9b 01 	call	0x336	; 0x336 <EF_S8_DIO_SetPin>
    2492:	84 e4       	ldi	r24, 0x44	; 68
    2494:	67 e0       	ldi	r22, 0x07	; 7
    2496:	0e 94 9b 01 	call	0x336	; 0x336 <EF_S8_DIO_SetPin>
    249a:	84 e4       	ldi	r24, 0x44	; 68
    249c:	64 e0       	ldi	r22, 0x04	; 4
    249e:	0e 94 9b 01 	call	0x336	; 0x336 <EF_S8_DIO_SetPin>
    24a2:	84 e4       	ldi	r24, 0x44	; 68
    24a4:	65 e0       	ldi	r22, 0x05	; 5
    24a6:	0e 94 9b 01 	call	0x336	; 0x336 <EF_S8_DIO_SetPin>
    24aa:	80 e1       	ldi	r24, 0x10	; 16
    24ac:	97 e2       	ldi	r25, 0x27	; 39
    24ae:	28 ec       	ldi	r18, 0xC8	; 200
    24b0:	30 e0       	ldi	r19, 0x00	; 0
    24b2:	f9 01       	movw	r30, r18
    24b4:	31 97       	sbiw	r30, 0x01	; 1
    24b6:	f1 f7       	brne	.-4      	; 0x24b4 <EF_Green_Kit_Leds_Relay_test+0x154>
    24b8:	01 97       	sbiw	r24, 0x01	; 1
    24ba:	d9 f7       	brne	.-10     	; 0x24b2 <EF_Green_Kit_Leds_Relay_test+0x152>
    24bc:	84 e4       	ldi	r24, 0x44	; 68
    24be:	64 e0       	ldi	r22, 0x04	; 4
    24c0:	0e 94 e4 01 	call	0x3c8	; 0x3c8 <EF_S8_DIO_ClearPin>
    24c4:	84 e4       	ldi	r24, 0x44	; 68
    24c6:	66 e0       	ldi	r22, 0x06	; 6
    24c8:	0e 94 e4 01 	call	0x3c8	; 0x3c8 <EF_S8_DIO_ClearPin>
    24cc:	88 e8       	ldi	r24, 0x88	; 136
    24ce:	93 e1       	ldi	r25, 0x13	; 19
    24d0:	28 ec       	ldi	r18, 0xC8	; 200
    24d2:	30 e0       	ldi	r19, 0x00	; 0
    24d4:	f9 01       	movw	r30, r18
    24d6:	31 97       	sbiw	r30, 0x01	; 1
    24d8:	f1 f7       	brne	.-4      	; 0x24d6 <EF_Green_Kit_Leds_Relay_test+0x176>
    24da:	01 97       	sbiw	r24, 0x01	; 1
    24dc:	d9 f7       	brne	.-10     	; 0x24d4 <EF_Green_Kit_Leds_Relay_test+0x174>
    24de:	84 e4       	ldi	r24, 0x44	; 68
    24e0:	65 e0       	ldi	r22, 0x05	; 5
    24e2:	0e 94 e4 01 	call	0x3c8	; 0x3c8 <EF_S8_DIO_ClearPin>
    24e6:	84 e4       	ldi	r24, 0x44	; 68
    24e8:	67 e0       	ldi	r22, 0x07	; 7
    24ea:	0e 94 e4 01 	call	0x3c8	; 0x3c8 <EF_S8_DIO_ClearPin>
    24ee:	88 e8       	ldi	r24, 0x88	; 136
    24f0:	93 e1       	ldi	r25, 0x13	; 19
    24f2:	28 ec       	ldi	r18, 0xC8	; 200
    24f4:	30 e0       	ldi	r19, 0x00	; 0
    24f6:	f9 01       	movw	r30, r18
    24f8:	31 97       	sbiw	r30, 0x01	; 1
    24fa:	f1 f7       	brne	.-4      	; 0x24f8 <EF_Green_Kit_Leds_Relay_test+0x198>
    24fc:	01 97       	sbiw	r24, 0x01	; 1
    24fe:	d9 f7       	brne	.-10     	; 0x24f6 <EF_Green_Kit_Leds_Relay_test+0x196>
    2500:	84 e4       	ldi	r24, 0x44	; 68
    2502:	66 e0       	ldi	r22, 0x06	; 6
    2504:	0e 94 9b 01 	call	0x336	; 0x336 <EF_S8_DIO_SetPin>
    2508:	84 e4       	ldi	r24, 0x44	; 68
    250a:	64 e0       	ldi	r22, 0x04	; 4
    250c:	0e 94 9b 01 	call	0x336	; 0x336 <EF_S8_DIO_SetPin>
    2510:	88 e8       	ldi	r24, 0x88	; 136
    2512:	93 e1       	ldi	r25, 0x13	; 19
    2514:	28 ec       	ldi	r18, 0xC8	; 200
    2516:	30 e0       	ldi	r19, 0x00	; 0
    2518:	f9 01       	movw	r30, r18
    251a:	31 97       	sbiw	r30, 0x01	; 1
    251c:	f1 f7       	brne	.-4      	; 0x251a <EF_Green_Kit_Leds_Relay_test+0x1ba>
    251e:	01 97       	sbiw	r24, 0x01	; 1
    2520:	d9 f7       	brne	.-10     	; 0x2518 <EF_Green_Kit_Leds_Relay_test+0x1b8>
    2522:	84 e4       	ldi	r24, 0x44	; 68
    2524:	67 e0       	ldi	r22, 0x07	; 7
    2526:	0e 94 9b 01 	call	0x336	; 0x336 <EF_S8_DIO_SetPin>
    252a:	84 e4       	ldi	r24, 0x44	; 68
    252c:	65 e0       	ldi	r22, 0x05	; 5
    252e:	0e 94 9b 01 	call	0x336	; 0x336 <EF_S8_DIO_SetPin>
    2532:	0e 94 3d 17 	call	0x2e7a	; 0x2e7a <EF_void_LCD_Clear_Screen>
    2536:	80 e4       	ldi	r24, 0x40	; 64
    2538:	94 e0       	ldi	r25, 0x04	; 4
    253a:	0e 94 17 17 	call	0x2e2e	; 0x2e2e <EF_void_LCD_print>
    253e:	80 e1       	ldi	r24, 0x10	; 16
    2540:	97 e2       	ldi	r25, 0x27	; 39
    2542:	28 ec       	ldi	r18, 0xC8	; 200
    2544:	30 e0       	ldi	r19, 0x00	; 0
    2546:	f9 01       	movw	r30, r18
    2548:	31 97       	sbiw	r30, 0x01	; 1
    254a:	f1 f7       	brne	.-4      	; 0x2548 <EF_Green_Kit_Leds_Relay_test+0x1e8>
    254c:	01 97       	sbiw	r24, 0x01	; 1
    254e:	d9 f7       	brne	.-10     	; 0x2546 <EF_Green_Kit_Leds_Relay_test+0x1e6>
    2550:	80 e1       	ldi	r24, 0x10	; 16
    2552:	97 e2       	ldi	r25, 0x27	; 39
    2554:	28 ec       	ldi	r18, 0xC8	; 200
    2556:	30 e0       	ldi	r19, 0x00	; 0
    2558:	f9 01       	movw	r30, r18
    255a:	31 97       	sbiw	r30, 0x01	; 1
    255c:	f1 f7       	brne	.-4      	; 0x255a <EF_Green_Kit_Leds_Relay_test+0x1fa>
    255e:	01 97       	sbiw	r24, 0x01	; 1
    2560:	d9 f7       	brne	.-10     	; 0x2558 <EF_Green_Kit_Leds_Relay_test+0x1f8>
    2562:	08 95       	ret

00002564 <EF_KIT_Inti>:
    2564:	0e 94 8b 17 	call	0x2f16	; 0x2f16 <EF_void_LCD_init>
    2568:	88 ee       	ldi	r24, 0xE8	; 232
    256a:	93 e0       	ldi	r25, 0x03	; 3
    256c:	28 ec       	ldi	r18, 0xC8	; 200
    256e:	30 e0       	ldi	r19, 0x00	; 0
    2570:	f9 01       	movw	r30, r18
    2572:	31 97       	sbiw	r30, 0x01	; 1
    2574:	f1 f7       	brne	.-4      	; 0x2572 <EF_KIT_Inti+0xe>
    2576:	01 97       	sbiw	r24, 0x01	; 1
    2578:	d9 f7       	brne	.-10     	; 0x2570 <EF_KIT_Inti+0xc>
    257a:	0e 94 3d 17 	call	0x2e7a	; 0x2e7a <EF_void_LCD_Clear_Screen>
    257e:	81 e0       	ldi	r24, 0x01	; 1
    2580:	64 e0       	ldi	r22, 0x04	; 4
    2582:	0e 94 f6 16 	call	0x2dec	; 0x2dec <EF_void_LCD_goto>
    2586:	80 91 3b 05 	lds	r24, 0x053B
    258a:	90 91 3c 05 	lds	r25, 0x053C
    258e:	0e 94 17 17 	call	0x2e2e	; 0x2e2e <EF_void_LCD_print>
    2592:	82 e0       	ldi	r24, 0x02	; 2
    2594:	63 e0       	ldi	r22, 0x03	; 3
    2596:	0e 94 f6 16 	call	0x2dec	; 0x2dec <EF_void_LCD_goto>
    259a:	80 91 3d 05 	lds	r24, 0x053D
    259e:	90 91 3e 05 	lds	r25, 0x053E
    25a2:	0e 94 17 17 	call	0x2e2e	; 0x2e2e <EF_void_LCD_print>
    25a6:	80 e3       	ldi	r24, 0x30	; 48
    25a8:	95 e7       	ldi	r25, 0x75	; 117
    25aa:	28 ec       	ldi	r18, 0xC8	; 200
    25ac:	30 e0       	ldi	r19, 0x00	; 0
    25ae:	f9 01       	movw	r30, r18
    25b0:	31 97       	sbiw	r30, 0x01	; 1
    25b2:	f1 f7       	brne	.-4      	; 0x25b0 <EF_KIT_Inti+0x4c>
    25b4:	01 97       	sbiw	r24, 0x01	; 1
    25b6:	d9 f7       	brne	.-10     	; 0x25ae <EF_KIT_Inti+0x4a>
    25b8:	0e 94 3d 17 	call	0x2e7a	; 0x2e7a <EF_void_LCD_Clear_Screen>
    25bc:	8e e4       	ldi	r24, 0x4E	; 78
    25be:	94 e0       	ldi	r25, 0x04	; 4
    25c0:	0e 94 17 17 	call	0x2e2e	; 0x2e2e <EF_void_LCD_print>
    25c4:	82 e0       	ldi	r24, 0x02	; 2
    25c6:	65 e0       	ldi	r22, 0x05	; 5
    25c8:	0e 94 f6 16 	call	0x2dec	; 0x2dec <EF_void_LCD_goto>
    25cc:	80 e6       	ldi	r24, 0x60	; 96
    25ce:	94 e0       	ldi	r25, 0x04	; 4
    25d0:	0e 94 17 17 	call	0x2e2e	; 0x2e2e <EF_void_LCD_print>
    25d4:	80 e2       	ldi	r24, 0x20	; 32
    25d6:	9e e4       	ldi	r25, 0x4E	; 78
    25d8:	28 ec       	ldi	r18, 0xC8	; 200
    25da:	30 e0       	ldi	r19, 0x00	; 0
    25dc:	f9 01       	movw	r30, r18
    25de:	31 97       	sbiw	r30, 0x01	; 1
    25e0:	f1 f7       	brne	.-4      	; 0x25de <EF_KIT_Inti+0x7a>
    25e2:	01 97       	sbiw	r24, 0x01	; 1
    25e4:	d9 f7       	brne	.-10     	; 0x25dc <EF_KIT_Inti+0x78>
    25e6:	08 95       	ret

000025e8 <EF_Timr0_Inter_Setup>:
    25e8:	83 b7       	in	r24, 0x33	; 51
    25ea:	83 60       	ori	r24, 0x03	; 3
    25ec:	83 bf       	out	0x33, r24	; 51
    25ee:	89 b7       	in	r24, 0x39	; 57
    25f0:	81 60       	ori	r24, 0x01	; 1
    25f2:	89 bf       	out	0x39, r24	; 57
    25f4:	81 e0       	ldi	r24, 0x01	; 1
    25f6:	82 bf       	out	0x32, r24	; 50
    25f8:	78 94       	sei
    25fa:	08 95       	ret

000025fc <EF_Health_Care_Heart_Pulse_Read>:
    25fc:	0e 94 80 00 	call	0x100	; 0x100 <EF_u16_ADC_read>
    2600:	90 93 d2 05 	sts	0x05D2, r25
    2604:	80 93 d1 05 	sts	0x05D1, r24
    2608:	80 91 c9 05 	lds	r24, 0x05C9
    260c:	90 91 ca 05 	lds	r25, 0x05CA
    2610:	a0 91 cb 05 	lds	r26, 0x05CB
    2614:	b0 91 cc 05 	lds	r27, 0x05CC
    2618:	02 96       	adiw	r24, 0x02	; 2
    261a:	a1 1d       	adc	r26, r1
    261c:	b1 1d       	adc	r27, r1
    261e:	80 93 c9 05 	sts	0x05C9, r24
    2622:	90 93 ca 05 	sts	0x05CA, r25
    2626:	a0 93 cb 05 	sts	0x05CB, r26
    262a:	b0 93 cc 05 	sts	0x05CC, r27
    262e:	80 91 c9 05 	lds	r24, 0x05C9
    2632:	90 91 ca 05 	lds	r25, 0x05CA
    2636:	a0 91 cb 05 	lds	r26, 0x05CB
    263a:	b0 91 cc 05 	lds	r27, 0x05CC
    263e:	20 91 cd 05 	lds	r18, 0x05CD
    2642:	30 91 ce 05 	lds	r19, 0x05CE
    2646:	40 91 cf 05 	lds	r20, 0x05CF
    264a:	50 91 d0 05 	lds	r21, 0x05D0
    264e:	82 1b       	sub	r24, r18
    2650:	93 0b       	sbc	r25, r19
    2652:	90 93 da 05 	sts	0x05DA, r25
    2656:	80 93 d9 05 	sts	0x05D9, r24
    265a:	20 91 d1 05 	lds	r18, 0x05D1
    265e:	30 91 d2 05 	lds	r19, 0x05D2
    2662:	80 91 67 05 	lds	r24, 0x0567
    2666:	90 91 68 05 	lds	r25, 0x0568
    266a:	28 17       	cp	r18, r24
    266c:	39 07       	cpc	r19, r25
    266e:	3c f5       	brge	.+78     	; 0x26be <EF_Health_Care_Heart_Pulse_Read+0xc2>
    2670:	20 91 d9 05 	lds	r18, 0x05D9
    2674:	30 91 da 05 	lds	r19, 0x05DA
    2678:	80 91 6d 05 	lds	r24, 0x056D
    267c:	90 91 6e 05 	lds	r25, 0x056E
    2680:	65 e0       	ldi	r22, 0x05	; 5
    2682:	70 e0       	ldi	r23, 0x00	; 0
    2684:	0e 94 cf 1a 	call	0x359e	; 0x359e <__divmodhi4>
    2688:	cb 01       	movw	r24, r22
    268a:	88 0f       	add	r24, r24
    268c:	99 1f       	adc	r25, r25
    268e:	86 0f       	add	r24, r22
    2690:	97 1f       	adc	r25, r23
    2692:	82 17       	cp	r24, r18
    2694:	93 07       	cpc	r25, r19
    2696:	9c f4       	brge	.+38     	; 0x26be <EF_Health_Care_Heart_Pulse_Read+0xc2>
    2698:	20 91 d1 05 	lds	r18, 0x05D1
    269c:	30 91 d2 05 	lds	r19, 0x05D2
    26a0:	80 91 65 05 	lds	r24, 0x0565
    26a4:	90 91 66 05 	lds	r25, 0x0566
    26a8:	28 17       	cp	r18, r24
    26aa:	39 07       	cpc	r19, r25
    26ac:	44 f4       	brge	.+16     	; 0x26be <EF_Health_Care_Heart_Pulse_Read+0xc2>
    26ae:	80 91 d1 05 	lds	r24, 0x05D1
    26b2:	90 91 d2 05 	lds	r25, 0x05D2
    26b6:	90 93 66 05 	sts	0x0566, r25
    26ba:	80 93 65 05 	sts	0x0565, r24
    26be:	20 91 d1 05 	lds	r18, 0x05D1
    26c2:	30 91 d2 05 	lds	r19, 0x05D2
    26c6:	80 91 67 05 	lds	r24, 0x0567
    26ca:	90 91 68 05 	lds	r25, 0x0568
    26ce:	82 17       	cp	r24, r18
    26d0:	93 07       	cpc	r25, r19
    26d2:	9c f4       	brge	.+38     	; 0x26fa <EF_Health_Care_Heart_Pulse_Read+0xfe>
    26d4:	20 91 d1 05 	lds	r18, 0x05D1
    26d8:	30 91 d2 05 	lds	r19, 0x05D2
    26dc:	80 91 63 05 	lds	r24, 0x0563
    26e0:	90 91 64 05 	lds	r25, 0x0564
    26e4:	82 17       	cp	r24, r18
    26e6:	93 07       	cpc	r25, r19
    26e8:	44 f4       	brge	.+16     	; 0x26fa <EF_Health_Care_Heart_Pulse_Read+0xfe>
    26ea:	80 91 d1 05 	lds	r24, 0x05D1
    26ee:	90 91 d2 05 	lds	r25, 0x05D2
    26f2:	90 93 64 05 	sts	0x0564, r25
    26f6:	80 93 63 05 	sts	0x0563, r24
    26fa:	80 91 d9 05 	lds	r24, 0x05D9
    26fe:	90 91 da 05 	lds	r25, 0x05DA
    2702:	8b 3f       	cpi	r24, 0xFB	; 251
    2704:	91 05       	cpc	r25, r1
    2706:	0c f4       	brge	.+2      	; 0x270a <EF_Health_Care_Heart_Pulse_Read+0x10e>
    2708:	f5 c0       	rjmp	.+490    	; 0x28f4 <EF_Health_Care_Heart_Pulse_Read+0x2f8>
    270a:	20 91 d1 05 	lds	r18, 0x05D1
    270e:	30 91 d2 05 	lds	r19, 0x05D2
    2712:	80 91 67 05 	lds	r24, 0x0567
    2716:	90 91 68 05 	lds	r25, 0x0568
    271a:	82 17       	cp	r24, r18
    271c:	93 07       	cpc	r25, r19
    271e:	0c f0       	brlt	.+2      	; 0x2722 <EF_Health_Care_Heart_Pulse_Read+0x126>
    2720:	e9 c0       	rjmp	.+466    	; 0x28f4 <EF_Health_Care_Heart_Pulse_Read+0x2f8>
    2722:	80 91 d3 05 	lds	r24, 0x05D3
    2726:	88 23       	and	r24, r24
    2728:	09 f0       	breq	.+2      	; 0x272c <EF_Health_Care_Heart_Pulse_Read+0x130>
    272a:	e4 c0       	rjmp	.+456    	; 0x28f4 <EF_Health_Care_Heart_Pulse_Read+0x2f8>
    272c:	20 91 d9 05 	lds	r18, 0x05D9
    2730:	30 91 da 05 	lds	r19, 0x05DA
    2734:	80 91 6d 05 	lds	r24, 0x056D
    2738:	90 91 6e 05 	lds	r25, 0x056E
    273c:	65 e0       	ldi	r22, 0x05	; 5
    273e:	70 e0       	ldi	r23, 0x00	; 0
    2740:	0e 94 cf 1a 	call	0x359e	; 0x359e <__divmodhi4>
    2744:	cb 01       	movw	r24, r22
    2746:	88 0f       	add	r24, r24
    2748:	99 1f       	adc	r25, r25
    274a:	86 0f       	add	r24, r22
    274c:	97 1f       	adc	r25, r23
    274e:	82 17       	cp	r24, r18
    2750:	93 07       	cpc	r25, r19
    2752:	0c f0       	brlt	.+2      	; 0x2756 <EF_Health_Care_Heart_Pulse_Read+0x15a>
    2754:	cf c0       	rjmp	.+414    	; 0x28f4 <EF_Health_Care_Heart_Pulse_Read+0x2f8>
    2756:	81 e0       	ldi	r24, 0x01	; 1
    2758:	80 93 d3 05 	sts	0x05D3, r24
    275c:	84 e4       	ldi	r24, 0x44	; 68
    275e:	65 e0       	ldi	r22, 0x05	; 5
    2760:	0e 94 e4 01 	call	0x3c8	; 0x3c8 <EF_S8_DIO_ClearPin>
    2764:	80 91 c9 05 	lds	r24, 0x05C9
    2768:	90 91 ca 05 	lds	r25, 0x05CA
    276c:	a0 91 cb 05 	lds	r26, 0x05CB
    2770:	b0 91 cc 05 	lds	r27, 0x05CC
    2774:	20 91 cd 05 	lds	r18, 0x05CD
    2778:	30 91 ce 05 	lds	r19, 0x05CE
    277c:	40 91 cf 05 	lds	r20, 0x05CF
    2780:	50 91 d0 05 	lds	r21, 0x05D0
    2784:	82 1b       	sub	r24, r18
    2786:	93 0b       	sbc	r25, r19
    2788:	90 93 6e 05 	sts	0x056E, r25
    278c:	80 93 6d 05 	sts	0x056D, r24
    2790:	80 91 c9 05 	lds	r24, 0x05C9
    2794:	90 91 ca 05 	lds	r25, 0x05CA
    2798:	a0 91 cb 05 	lds	r26, 0x05CB
    279c:	b0 91 cc 05 	lds	r27, 0x05CC
    27a0:	80 93 cd 05 	sts	0x05CD, r24
    27a4:	90 93 ce 05 	sts	0x05CE, r25
    27a8:	a0 93 cf 05 	sts	0x05CF, r26
    27ac:	b0 93 d0 05 	sts	0x05D0, r27
    27b0:	80 91 6b 05 	lds	r24, 0x056B
    27b4:	88 23       	and	r24, r24
    27b6:	19 f0       	breq	.+6      	; 0x27be <EF_Health_Care_Heart_Pulse_Read+0x1c2>
    27b8:	10 92 6b 05 	sts	0x056B, r1
    27bc:	08 95       	ret
    27be:	80 91 6c 05 	lds	r24, 0x056C
    27c2:	88 23       	and	r24, r24
    27c4:	a1 f0       	breq	.+40     	; 0x27ee <EF_Health_Care_Heart_Pulse_Read+0x1f2>
    27c6:	10 92 6c 05 	sts	0x056C, r1
    27ca:	20 e0       	ldi	r18, 0x00	; 0
    27cc:	30 e0       	ldi	r19, 0x00	; 0
    27ce:	80 91 6d 05 	lds	r24, 0x056D
    27d2:	90 91 6e 05 	lds	r25, 0x056E
    27d6:	f9 01       	movw	r30, r18
    27d8:	ee 0f       	add	r30, r30
    27da:	ff 1f       	adc	r31, r31
    27dc:	e1 52       	subi	r30, 0x21	; 33
    27de:	fa 4f       	sbci	r31, 0xFA	; 250
    27e0:	91 83       	std	Z+1, r25	; 0x01
    27e2:	80 83       	st	Z, r24
    27e4:	2f 5f       	subi	r18, 0xFF	; 255
    27e6:	3f 4f       	sbci	r19, 0xFF	; 255
    27e8:	2a 30       	cpi	r18, 0x0A	; 10
    27ea:	31 05       	cpc	r19, r1
    27ec:	81 f7       	brne	.-32     	; 0x27ce <EF_Health_Care_Heart_Pulse_Read+0x1d2>
    27ee:	20 e0       	ldi	r18, 0x00	; 0
    27f0:	30 e0       	ldi	r19, 0x00	; 0
    27f2:	b9 01       	movw	r22, r18
    27f4:	6f 5f       	subi	r22, 0xFF	; 255
    27f6:	7f 4f       	sbci	r23, 0xFF	; 255
    27f8:	fb 01       	movw	r30, r22
    27fa:	ee 0f       	add	r30, r30
    27fc:	ff 1f       	adc	r31, r31
    27fe:	e1 52       	subi	r30, 0x21	; 33
    2800:	fa 4f       	sbci	r31, 0xFA	; 250
    2802:	80 81       	ld	r24, Z
    2804:	91 81       	ldd	r25, Z+1	; 0x01
    2806:	f9 01       	movw	r30, r18
    2808:	ee 0f       	add	r30, r30
    280a:	ff 1f       	adc	r31, r31
    280c:	e1 52       	subi	r30, 0x21	; 33
    280e:	fa 4f       	sbci	r31, 0xFA	; 250
    2810:	91 83       	std	Z+1, r25	; 0x01
    2812:	80 83       	st	Z, r24
    2814:	20 91 d5 05 	lds	r18, 0x05D5
    2818:	30 91 d6 05 	lds	r19, 0x05D6
    281c:	40 91 d7 05 	lds	r20, 0x05D7
    2820:	50 91 d8 05 	lds	r21, 0x05D8
    2824:	80 81       	ld	r24, Z
    2826:	91 81       	ldd	r25, Z+1	; 0x01
    2828:	aa 27       	eor	r26, r26
    282a:	97 fd       	sbrc	r25, 7
    282c:	a0 95       	com	r26
    282e:	ba 2f       	mov	r27, r26
    2830:	82 0f       	add	r24, r18
    2832:	93 1f       	adc	r25, r19
    2834:	a4 1f       	adc	r26, r20
    2836:	b5 1f       	adc	r27, r21
    2838:	80 93 d5 05 	sts	0x05D5, r24
    283c:	90 93 d6 05 	sts	0x05D6, r25
    2840:	a0 93 d7 05 	sts	0x05D7, r26
    2844:	b0 93 d8 05 	sts	0x05D8, r27
    2848:	69 30       	cpi	r22, 0x09	; 9
    284a:	71 05       	cpc	r23, r1
    284c:	11 f0       	breq	.+4      	; 0x2852 <EF_Health_Care_Heart_Pulse_Read+0x256>
    284e:	9b 01       	movw	r18, r22
    2850:	d0 cf       	rjmp	.-96     	; 0x27f2 <EF_Health_Care_Heart_Pulse_Read+0x1f6>
    2852:	80 91 6d 05 	lds	r24, 0x056D
    2856:	90 91 6e 05 	lds	r25, 0x056E
    285a:	90 93 f2 05 	sts	0x05F2, r25
    285e:	80 93 f1 05 	sts	0x05F1, r24
    2862:	20 91 d5 05 	lds	r18, 0x05D5
    2866:	30 91 d6 05 	lds	r19, 0x05D6
    286a:	40 91 d7 05 	lds	r20, 0x05D7
    286e:	50 91 d8 05 	lds	r21, 0x05D8
    2872:	80 91 f1 05 	lds	r24, 0x05F1
    2876:	90 91 f2 05 	lds	r25, 0x05F2
    287a:	aa 27       	eor	r26, r26
    287c:	97 fd       	sbrc	r25, 7
    287e:	a0 95       	com	r26
    2880:	ba 2f       	mov	r27, r26
    2882:	82 0f       	add	r24, r18
    2884:	93 1f       	adc	r25, r19
    2886:	a4 1f       	adc	r26, r20
    2888:	b5 1f       	adc	r27, r21
    288a:	80 93 d5 05 	sts	0x05D5, r24
    288e:	90 93 d6 05 	sts	0x05D6, r25
    2892:	a0 93 d7 05 	sts	0x05D7, r26
    2896:	b0 93 d8 05 	sts	0x05D8, r27
    289a:	60 91 d5 05 	lds	r22, 0x05D5
    289e:	70 91 d6 05 	lds	r23, 0x05D6
    28a2:	80 91 d7 05 	lds	r24, 0x05D7
    28a6:	90 91 d8 05 	lds	r25, 0x05D8
    28aa:	2a e0       	ldi	r18, 0x0A	; 10
    28ac:	30 e0       	ldi	r19, 0x00	; 0
    28ae:	40 e0       	ldi	r20, 0x00	; 0
    28b0:	50 e0       	ldi	r21, 0x00	; 0
    28b2:	0e 94 e2 1a 	call	0x35c4	; 0x35c4 <__udivmodsi4>
    28b6:	c9 01       	movw	r24, r18
    28b8:	da 01       	movw	r26, r20
    28ba:	80 93 d5 05 	sts	0x05D5, r24
    28be:	90 93 d6 05 	sts	0x05D6, r25
    28c2:	a0 93 d7 05 	sts	0x05D7, r26
    28c6:	b0 93 d8 05 	sts	0x05D8, r27
    28ca:	20 91 d5 05 	lds	r18, 0x05D5
    28ce:	30 91 d6 05 	lds	r19, 0x05D6
    28d2:	40 91 d7 05 	lds	r20, 0x05D7
    28d6:	50 91 d8 05 	lds	r21, 0x05D8
    28da:	60 e6       	ldi	r22, 0x60	; 96
    28dc:	7a ee       	ldi	r23, 0xEA	; 234
    28de:	80 e0       	ldi	r24, 0x00	; 0
    28e0:	90 e0       	ldi	r25, 0x00	; 0
    28e2:	0e 94 e2 1a 	call	0x35c4	; 0x35c4 <__udivmodsi4>
    28e6:	30 93 f4 05 	sts	0x05F4, r19
    28ea:	20 93 f3 05 	sts	0x05F3, r18
    28ee:	81 e0       	ldi	r24, 0x01	; 1
    28f0:	80 93 d4 05 	sts	0x05D4, r24
    28f4:	20 91 d1 05 	lds	r18, 0x05D1
    28f8:	30 91 d2 05 	lds	r19, 0x05D2
    28fc:	80 91 67 05 	lds	r24, 0x0567
    2900:	90 91 68 05 	lds	r25, 0x0568
    2904:	28 17       	cp	r18, r24
    2906:	39 07       	cpc	r19, r25
    2908:	d4 f5       	brge	.+116    	; 0x297e <EF_Health_Care_Heart_Pulse_Read+0x382>
    290a:	80 91 d3 05 	lds	r24, 0x05D3
    290e:	81 30       	cpi	r24, 0x01	; 1
    2910:	b1 f5       	brne	.+108    	; 0x297e <EF_Health_Care_Heart_Pulse_Read+0x382>
    2912:	84 e4       	ldi	r24, 0x44	; 68
    2914:	65 e0       	ldi	r22, 0x05	; 5
    2916:	0e 94 9b 01 	call	0x336	; 0x336 <EF_S8_DIO_SetPin>
    291a:	10 92 d3 05 	sts	0x05D3, r1
    291e:	80 91 63 05 	lds	r24, 0x0563
    2922:	90 91 64 05 	lds	r25, 0x0564
    2926:	20 91 65 05 	lds	r18, 0x0565
    292a:	30 91 66 05 	lds	r19, 0x0566
    292e:	82 1b       	sub	r24, r18
    2930:	93 0b       	sbc	r25, r19
    2932:	90 93 6a 05 	sts	0x056A, r25
    2936:	80 93 69 05 	sts	0x0569, r24
    293a:	80 91 69 05 	lds	r24, 0x0569
    293e:	90 91 6a 05 	lds	r25, 0x056A
    2942:	20 91 65 05 	lds	r18, 0x0565
    2946:	30 91 66 05 	lds	r19, 0x0566
    294a:	62 e0       	ldi	r22, 0x02	; 2
    294c:	70 e0       	ldi	r23, 0x00	; 0
    294e:	0e 94 cf 1a 	call	0x359e	; 0x359e <__divmodhi4>
    2952:	26 0f       	add	r18, r22
    2954:	37 1f       	adc	r19, r23
    2956:	30 93 68 05 	sts	0x0568, r19
    295a:	20 93 67 05 	sts	0x0567, r18
    295e:	80 91 67 05 	lds	r24, 0x0567
    2962:	90 91 68 05 	lds	r25, 0x0568
    2966:	90 93 64 05 	sts	0x0564, r25
    296a:	80 93 63 05 	sts	0x0563, r24
    296e:	80 91 67 05 	lds	r24, 0x0567
    2972:	90 91 68 05 	lds	r25, 0x0568
    2976:	90 93 66 05 	sts	0x0566, r25
    297a:	80 93 65 05 	sts	0x0565, r24
    297e:	80 91 d9 05 	lds	r24, 0x05D9
    2982:	90 91 da 05 	lds	r25, 0x05DA
    2986:	85 5c       	subi	r24, 0xC5	; 197
    2988:	99 40       	sbci	r25, 0x09	; 9
    298a:	1c f1       	brlt	.+70     	; 0x29d2 <EF_Health_Care_Heart_Pulse_Read+0x3d6>
    298c:	80 e0       	ldi	r24, 0x00	; 0
    298e:	92 e0       	ldi	r25, 0x02	; 2
    2990:	90 93 68 05 	sts	0x0568, r25
    2994:	80 93 67 05 	sts	0x0567, r24
    2998:	90 93 64 05 	sts	0x0564, r25
    299c:	80 93 63 05 	sts	0x0563, r24
    29a0:	90 93 66 05 	sts	0x0566, r25
    29a4:	80 93 65 05 	sts	0x0565, r24
    29a8:	80 91 c9 05 	lds	r24, 0x05C9
    29ac:	90 91 ca 05 	lds	r25, 0x05CA
    29b0:	a0 91 cb 05 	lds	r26, 0x05CB
    29b4:	b0 91 cc 05 	lds	r27, 0x05CC
    29b8:	80 93 cd 05 	sts	0x05CD, r24
    29bc:	90 93 ce 05 	sts	0x05CE, r25
    29c0:	a0 93 cf 05 	sts	0x05CF, r26
    29c4:	b0 93 d0 05 	sts	0x05D0, r27
    29c8:	81 e0       	ldi	r24, 0x01	; 1
    29ca:	80 93 6b 05 	sts	0x056B, r24
    29ce:	80 93 6c 05 	sts	0x056C, r24
    29d2:	08 95       	ret

000029d4 <EF_Health_Care_Temp_Read>:
    29d4:	af 92       	push	r10
    29d6:	bf 92       	push	r11
    29d8:	cf 92       	push	r12
    29da:	df 92       	push	r13
    29dc:	ef 92       	push	r14
    29de:	ff 92       	push	r15
    29e0:	0f 93       	push	r16
    29e2:	1f 93       	push	r17
    29e4:	87 e0       	ldi	r24, 0x07	; 7
    29e6:	0e 94 80 00 	call	0x100	; 0x100 <EF_u16_ADC_read>
    29ea:	a0 e0       	ldi	r26, 0x00	; 0
    29ec:	b0 e0       	ldi	r27, 0x00	; 0
    29ee:	bc 01       	movw	r22, r24
    29f0:	cd 01       	movw	r24, r26
    29f2:	0e 94 1e 19 	call	0x323c	; 0x323c <__floatunsisf>
    29f6:	20 e0       	ldi	r18, 0x00	; 0
    29f8:	30 ec       	ldi	r19, 0xC0	; 192
    29fa:	4f e7       	ldi	r20, 0x7F	; 127
    29fc:	54 e4       	ldi	r21, 0x44	; 68
    29fe:	0e 94 8a 18 	call	0x3114	; 0x3114 <__divsf3>
    2a02:	20 e0       	ldi	r18, 0x00	; 0
    2a04:	30 e4       	ldi	r19, 0x40	; 64
    2a06:	4c e9       	ldi	r20, 0x9C	; 156
    2a08:	55 e4       	ldi	r21, 0x45	; 69
    2a0a:	0e 94 f5 19 	call	0x33ea	; 0x33ea <__mulsf3>
    2a0e:	7b 01       	movw	r14, r22
    2a10:	8c 01       	movw	r16, r24
    2a12:	20 e0       	ldi	r18, 0x00	; 0
    2a14:	30 e1       	ldi	r19, 0x10	; 16
    2a16:	4a e1       	ldi	r20, 0x1A	; 26
    2a18:	56 e4       	ldi	r21, 0x46	; 70
    2a1a:	0e 94 f5 19 	call	0x33ea	; 0x33ea <__mulsf3>
    2a1e:	5b 01       	movw	r10, r22
    2a20:	6c 01       	movw	r12, r24
    2a22:	60 e0       	ldi	r22, 0x00	; 0
    2a24:	70 e4       	ldi	r23, 0x40	; 64
    2a26:	8c e9       	ldi	r24, 0x9C	; 156
    2a28:	95 e4       	ldi	r25, 0x45	; 69
    2a2a:	a8 01       	movw	r20, r16
    2a2c:	97 01       	movw	r18, r14
    2a2e:	0e 94 25 18 	call	0x304a	; 0x304a <__subsf3>
    2a32:	9b 01       	movw	r18, r22
    2a34:	ac 01       	movw	r20, r24
    2a36:	c6 01       	movw	r24, r12
    2a38:	b5 01       	movw	r22, r10
    2a3a:	0e 94 8a 18 	call	0x3114	; 0x3114 <__divsf3>
    2a3e:	7b 01       	movw	r14, r22
    2a40:	8c 01       	movw	r16, r24
    2a42:	2a e9       	ldi	r18, 0x9A	; 154
    2a44:	39 ed       	ldi	r19, 0xD9	; 217
    2a46:	43 ee       	ldi	r20, 0xE3	; 227
    2a48:	54 e4       	ldi	r21, 0x44	; 68
    2a4a:	0e 94 ac 19 	call	0x3358	; 0x3358 <__gesf2>
    2a4e:	88 23       	and	r24, r24
    2a50:	7c f0       	brlt	.+30     	; 0x2a70 <EF_Health_Care_Temp_Read+0x9c>
    2a52:	c8 01       	movw	r24, r16
    2a54:	b7 01       	movw	r22, r14
    2a56:	23 ea       	ldi	r18, 0xA3	; 163
    2a58:	31 e7       	ldi	r19, 0x71	; 113
    2a5a:	4f ec       	ldi	r20, 0xCF	; 207
    2a5c:	55 e4       	ldi	r21, 0x45	; 69
    2a5e:	0e 94 8a 18 	call	0x3114	; 0x3114 <__divsf3>
    2a62:	0e 94 b5 19 	call	0x336a	; 0x336a <log>
    2a66:	2b e1       	ldi	r18, 0x1B	; 27
    2a68:	3e e1       	ldi	r19, 0x1E	; 30
    2a6a:	41 e3       	ldi	r20, 0x31	; 49
    2a6c:	5d eb       	ldi	r21, 0xBD	; 189
    2a6e:	68 c0       	rjmp	.+208    	; 0x2b40 <EF_Health_Care_Temp_Read+0x16c>
    2a70:	c8 01       	movw	r24, r16
    2a72:	b7 01       	movw	r22, r14
    2a74:	23 e3       	ldi	r18, 0x33	; 51
    2a76:	33 ea       	ldi	r19, 0xA3	; 163
    2a78:	48 eb       	ldi	r20, 0xB8	; 184
    2a7a:	54 e4       	ldi	r21, 0x44	; 68
    2a7c:	0e 94 ac 19 	call	0x3358	; 0x3358 <__gesf2>
    2a80:	88 23       	and	r24, r24
    2a82:	7c f0       	brlt	.+30     	; 0x2aa2 <EF_Health_Care_Temp_Read+0xce>
    2a84:	c8 01       	movw	r24, r16
    2a86:	b7 01       	movw	r22, r14
    2a88:	22 ef       	ldi	r18, 0xF2	; 242
    2a8a:	3b e1       	ldi	r19, 0x1B	; 27
    2a8c:	48 ec       	ldi	r20, 0xC8	; 200
    2a8e:	55 e4       	ldi	r21, 0x45	; 69
    2a90:	0e 94 8a 18 	call	0x3114	; 0x3114 <__divsf3>
    2a94:	0e 94 b5 19 	call	0x336a	; 0x336a <log>
    2a98:	22 eb       	ldi	r18, 0xB2	; 178
    2a9a:	33 e3       	ldi	r19, 0x33	; 51
    2a9c:	4c e2       	ldi	r20, 0x2C	; 44
    2a9e:	5d eb       	ldi	r21, 0xBD	; 189
    2aa0:	4f c0       	rjmp	.+158    	; 0x2b40 <EF_Health_Care_Temp_Read+0x16c>
    2aa2:	c8 01       	movw	r24, r16
    2aa4:	b7 01       	movw	r22, r14
    2aa6:	2a e9       	ldi	r18, 0x9A	; 154
    2aa8:	39 e9       	ldi	r19, 0x99	; 153
    2aaa:	46 e9       	ldi	r20, 0x96	; 150
    2aac:	54 e4       	ldi	r21, 0x44	; 68
    2aae:	0e 94 ac 19 	call	0x3358	; 0x3358 <__gesf2>
    2ab2:	88 23       	and	r24, r24
    2ab4:	7c f0       	brlt	.+30     	; 0x2ad4 <EF_Health_Care_Temp_Read+0x100>
    2ab6:	c8 01       	movw	r24, r16
    2ab8:	b7 01       	movw	r22, r14
    2aba:	21 e2       	ldi	r18, 0x21	; 33
    2abc:	30 e3       	ldi	r19, 0x30	; 48
    2abe:	4f eb       	ldi	r20, 0xBF	; 191
    2ac0:	55 e4       	ldi	r21, 0x45	; 69
    2ac2:	0e 94 8a 18 	call	0x3114	; 0x3114 <__divsf3>
    2ac6:	0e 94 b5 19 	call	0x336a	; 0x336a <log>
    2aca:	2e e8       	ldi	r18, 0x8E	; 142
    2acc:	3d ed       	ldi	r19, 0xDD	; 221
    2ace:	46 e2       	ldi	r20, 0x26	; 38
    2ad0:	5d eb       	ldi	r21, 0xBD	; 189
    2ad2:	36 c0       	rjmp	.+108    	; 0x2b40 <EF_Health_Care_Temp_Read+0x16c>
    2ad4:	c8 01       	movw	r24, r16
    2ad6:	b7 01       	movw	r22, r14
    2ad8:	26 e6       	ldi	r18, 0x66	; 102
    2ada:	36 e0       	ldi	r19, 0x06	; 6
    2adc:	47 e7       	ldi	r20, 0x77	; 119
    2ade:	54 e4       	ldi	r21, 0x44	; 68
    2ae0:	0e 94 ac 19 	call	0x3358	; 0x3358 <__gesf2>
    2ae4:	88 23       	and	r24, r24
    2ae6:	7c f0       	brlt	.+30     	; 0x2b06 <EF_Health_Care_Temp_Read+0x132>
    2ae8:	c8 01       	movw	r24, r16
    2aea:	b7 01       	movw	r22, r14
    2aec:	22 e8       	ldi	r18, 0x82	; 130
    2aee:	38 e1       	ldi	r19, 0x18	; 24
    2af0:	47 eb       	ldi	r20, 0xB7	; 183
    2af2:	55 e4       	ldi	r21, 0x45	; 69
    2af4:	0e 94 8a 18 	call	0x3114	; 0x3114 <__divsf3>
    2af8:	0e 94 b5 19 	call	0x336a	; 0x336a <log>
    2afc:	24 e5       	ldi	r18, 0x54	; 84
    2afe:	3e e6       	ldi	r19, 0x6E	; 110
    2b00:	42 e2       	ldi	r20, 0x22	; 34
    2b02:	5d eb       	ldi	r21, 0xBD	; 189
    2b04:	1d c0       	rjmp	.+58     	; 0x2b40 <EF_Health_Care_Temp_Read+0x16c>
    2b06:	c8 01       	movw	r24, r16
    2b08:	b7 01       	movw	r22, r14
    2b0a:	2d ec       	ldi	r18, 0xCD	; 205
    2b0c:	3c ee       	ldi	r19, 0xEC	; 236
    2b0e:	4a e4       	ldi	r20, 0x4A	; 74
    2b10:	54 e4       	ldi	r21, 0x44	; 68
    2b12:	0e 94 ac 19 	call	0x3358	; 0x3358 <__gesf2>
    2b16:	87 ff       	sbrs	r24, 7
    2b18:	05 c0       	rjmp	.+10     	; 0x2b24 <EF_Health_Care_Temp_Read+0x150>
    2b1a:	60 e0       	ldi	r22, 0x00	; 0
    2b1c:	70 e0       	ldi	r23, 0x00	; 0
    2b1e:	80 e0       	ldi	r24, 0x00	; 0
    2b20:	90 e0       	ldi	r25, 0x00	; 0
    2b22:	10 c0       	rjmp	.+32     	; 0x2b44 <EF_Health_Care_Temp_Read+0x170>
    2b24:	c8 01       	movw	r24, r16
    2b26:	b7 01       	movw	r22, r14
    2b28:	21 e9       	ldi	r18, 0x91	; 145
    2b2a:	3f e3       	ldi	r19, 0x3F	; 63
    2b2c:	4e ea       	ldi	r20, 0xAE	; 174
    2b2e:	55 e4       	ldi	r21, 0x45	; 69
    2b30:	0e 94 8a 18 	call	0x3114	; 0x3114 <__divsf3>
    2b34:	0e 94 b5 19 	call	0x336a	; 0x336a <log>
    2b38:	20 e8       	ldi	r18, 0x80	; 128
    2b3a:	3a ee       	ldi	r19, 0xEA	; 234
    2b3c:	4d e1       	ldi	r20, 0x1D	; 29
    2b3e:	5d eb       	ldi	r21, 0xBD	; 189
    2b40:	0e 94 8a 18 	call	0x3114	; 0x3114 <__divsf3>
    2b44:	20 e0       	ldi	r18, 0x00	; 0
    2b46:	30 e0       	ldi	r19, 0x00	; 0
    2b48:	48 ec       	ldi	r20, 0xC8	; 200
    2b4a:	52 e4       	ldi	r21, 0x42	; 66
    2b4c:	0e 94 f5 19 	call	0x33ea	; 0x33ea <__mulsf3>
    2b50:	1f 91       	pop	r17
    2b52:	0f 91       	pop	r16
    2b54:	ff 90       	pop	r15
    2b56:	ef 90       	pop	r14
    2b58:	df 90       	pop	r13
    2b5a:	cf 90       	pop	r12
    2b5c:	bf 90       	pop	r11
    2b5e:	af 90       	pop	r10
    2b60:	08 95       	ret

00002b62 <__vector_11>:
    2b62:	1f 92       	push	r1
    2b64:	0f 92       	push	r0
    2b66:	0f b6       	in	r0, 0x3f	; 63
    2b68:	0f 92       	push	r0
    2b6a:	11 24       	eor	r1, r1
    2b6c:	2f 93       	push	r18
    2b6e:	3f 93       	push	r19
    2b70:	4f 93       	push	r20
    2b72:	5f 93       	push	r21
    2b74:	6f 93       	push	r22
    2b76:	7f 93       	push	r23
    2b78:	8f 93       	push	r24
    2b7a:	9f 93       	push	r25
    2b7c:	af 93       	push	r26
    2b7e:	bf 93       	push	r27
    2b80:	ef 93       	push	r30
    2b82:	ff 93       	push	r31
    2b84:	f8 94       	cli
    2b86:	85 e0       	ldi	r24, 0x05	; 5
    2b88:	0e 94 fe 12 	call	0x25fc	; 0x25fc <EF_Health_Care_Heart_Pulse_Read>
    2b8c:	80 91 d4 05 	lds	r24, 0x05D4
    2b90:	81 30       	cpi	r24, 0x01	; 1
    2b92:	39 f5       	brne	.+78     	; 0x2be2 <__vector_11+0x80>
    2b94:	87 e0       	ldi	r24, 0x07	; 7
    2b96:	0e 94 ea 14 	call	0x29d4	; 0x29d4 <EF_Health_Care_Temp_Read>
    2b9a:	60 93 db 05 	sts	0x05DB, r22
    2b9e:	70 93 dc 05 	sts	0x05DC, r23
    2ba2:	80 93 dd 05 	sts	0x05DD, r24
    2ba6:	90 93 de 05 	sts	0x05DE, r25
    2baa:	60 91 db 05 	lds	r22, 0x05DB
    2bae:	70 91 dc 05 	lds	r23, 0x05DC
    2bb2:	80 91 dd 05 	lds	r24, 0x05DD
    2bb6:	90 91 de 05 	lds	r25, 0x05DE
    2bba:	0e 94 f2 18 	call	0x31e4	; 0x31e4 <__fixunssfsi>
    2bbe:	dc 01       	movw	r26, r24
    2bc0:	cb 01       	movw	r24, r22
    2bc2:	0e 94 c4 06 	call	0xd88	; 0xd88 <EF_void_UART_Send_data_temp>
    2bc6:	80 91 f3 05 	lds	r24, 0x05F3
    2bca:	90 91 f4 05 	lds	r25, 0x05F4
    2bce:	0e 94 8d 06 	call	0xd1a	; 0xd1a <EF_void_UART_Send_data_PBM>
    2bd2:	8d e0       	ldi	r24, 0x0D	; 13
    2bd4:	0e 94 c3 05 	call	0xb86	; 0xb86 <EF_void_UART_PutChar>
    2bd8:	8a e0       	ldi	r24, 0x0A	; 10
    2bda:	0e 94 c3 05 	call	0xb86	; 0xb86 <EF_void_UART_PutChar>
    2bde:	10 92 d4 05 	sts	0x05D4, r1
    2be2:	88 b7       	in	r24, 0x38	; 56
    2be4:	8e 7f       	andi	r24, 0xFE	; 254
    2be6:	88 bf       	out	0x38, r24	; 56
    2be8:	81 e0       	ldi	r24, 0x01	; 1
    2bea:	82 bf       	out	0x32, r24	; 50
    2bec:	78 94       	sei
    2bee:	ff 91       	pop	r31
    2bf0:	ef 91       	pop	r30
    2bf2:	bf 91       	pop	r27
    2bf4:	af 91       	pop	r26
    2bf6:	9f 91       	pop	r25
    2bf8:	8f 91       	pop	r24
    2bfa:	7f 91       	pop	r23
    2bfc:	6f 91       	pop	r22
    2bfe:	5f 91       	pop	r21
    2c00:	4f 91       	pop	r20
    2c02:	3f 91       	pop	r19
    2c04:	2f 91       	pop	r18
    2c06:	0f 90       	pop	r0
    2c08:	0f be       	out	0x3f, r0	; 63
    2c0a:	0f 90       	pop	r0
    2c0c:	1f 90       	pop	r1
    2c0e:	18 95       	reti

00002c10 <EF_Health_Care_system_int>:
    2c10:	0e 94 8b 17 	call	0x2f16	; 0x2f16 <EF_void_LCD_init>
    2c14:	08 95       	ret

00002c16 <EF_u8_KeyPad_Scan>:
    2c16:	1f 93       	push	r17
    2c18:	16 b8       	out	0x06, r1	; 6
    2c1a:	81 e4       	ldi	r24, 0x41	; 65
    2c1c:	65 e0       	ldi	r22, 0x05	; 5
    2c1e:	0e 94 e4 01 	call	0x3c8	; 0x3c8 <EF_S8_DIO_ClearPin>
    2c22:	81 e4       	ldi	r24, 0x41	; 65
    2c24:	64 e0       	ldi	r22, 0x04	; 4
    2c26:	0e 94 9b 01 	call	0x336	; 0x336 <EF_S8_DIO_SetPin>
    2c2a:	81 e4       	ldi	r24, 0x41	; 65
    2c2c:	63 e0       	ldi	r22, 0x03	; 3
    2c2e:	0e 94 9b 01 	call	0x336	; 0x336 <EF_S8_DIO_SetPin>
    2c32:	81 e4       	ldi	r24, 0x41	; 65
    2c34:	60 e0       	ldi	r22, 0x00	; 0
    2c36:	0e 94 c3 02 	call	0x586	; 0x586 <EF_S8_DIO_CheckPin>
    2c3a:	88 23       	and	r24, r24
    2c3c:	11 f4       	brne	.+4      	; 0x2c42 <EF_u8_KeyPad_Scan+0x2c>
    2c3e:	11 e0       	ldi	r17, 0x01	; 1
    2c40:	11 c0       	rjmp	.+34     	; 0x2c64 <EF_u8_KeyPad_Scan+0x4e>
    2c42:	81 e4       	ldi	r24, 0x41	; 65
    2c44:	61 e0       	ldi	r22, 0x01	; 1
    2c46:	0e 94 c3 02 	call	0x586	; 0x586 <EF_S8_DIO_CheckPin>
    2c4a:	88 23       	and	r24, r24
    2c4c:	11 f4       	brne	.+4      	; 0x2c52 <EF_u8_KeyPad_Scan+0x3c>
    2c4e:	14 e0       	ldi	r17, 0x04	; 4
    2c50:	09 c0       	rjmp	.+18     	; 0x2c64 <EF_u8_KeyPad_Scan+0x4e>
    2c52:	81 e4       	ldi	r24, 0x41	; 65
    2c54:	62 e0       	ldi	r22, 0x02	; 2
    2c56:	0e 94 c3 02 	call	0x586	; 0x586 <EF_S8_DIO_CheckPin>
    2c5a:	88 23       	and	r24, r24
    2c5c:	11 f4       	brne	.+4      	; 0x2c62 <EF_u8_KeyPad_Scan+0x4c>
    2c5e:	17 e0       	ldi	r17, 0x07	; 7
    2c60:	01 c0       	rjmp	.+2      	; 0x2c64 <EF_u8_KeyPad_Scan+0x4e>
    2c62:	10 e0       	ldi	r17, 0x00	; 0
    2c64:	81 e4       	ldi	r24, 0x41	; 65
    2c66:	64 e0       	ldi	r22, 0x04	; 4
    2c68:	0e 94 e4 01 	call	0x3c8	; 0x3c8 <EF_S8_DIO_ClearPin>
    2c6c:	81 e4       	ldi	r24, 0x41	; 65
    2c6e:	65 e0       	ldi	r22, 0x05	; 5
    2c70:	0e 94 9b 01 	call	0x336	; 0x336 <EF_S8_DIO_SetPin>
    2c74:	81 e4       	ldi	r24, 0x41	; 65
    2c76:	63 e0       	ldi	r22, 0x03	; 3
    2c78:	0e 94 9b 01 	call	0x336	; 0x336 <EF_S8_DIO_SetPin>
    2c7c:	81 e4       	ldi	r24, 0x41	; 65
    2c7e:	60 e0       	ldi	r22, 0x00	; 0
    2c80:	0e 94 c3 02 	call	0x586	; 0x586 <EF_S8_DIO_CheckPin>
    2c84:	88 23       	and	r24, r24
    2c86:	11 f4       	brne	.+4      	; 0x2c8c <EF_u8_KeyPad_Scan+0x76>
    2c88:	12 e0       	ldi	r17, 0x02	; 2
    2c8a:	0f c0       	rjmp	.+30     	; 0x2caa <EF_u8_KeyPad_Scan+0x94>
    2c8c:	81 e4       	ldi	r24, 0x41	; 65
    2c8e:	61 e0       	ldi	r22, 0x01	; 1
    2c90:	0e 94 c3 02 	call	0x586	; 0x586 <EF_S8_DIO_CheckPin>
    2c94:	88 23       	and	r24, r24
    2c96:	11 f4       	brne	.+4      	; 0x2c9c <EF_u8_KeyPad_Scan+0x86>
    2c98:	15 e0       	ldi	r17, 0x05	; 5
    2c9a:	07 c0       	rjmp	.+14     	; 0x2caa <EF_u8_KeyPad_Scan+0x94>
    2c9c:	81 e4       	ldi	r24, 0x41	; 65
    2c9e:	62 e0       	ldi	r22, 0x02	; 2
    2ca0:	0e 94 c3 02 	call	0x586	; 0x586 <EF_S8_DIO_CheckPin>
    2ca4:	88 23       	and	r24, r24
    2ca6:	09 f4       	brne	.+2      	; 0x2caa <EF_u8_KeyPad_Scan+0x94>
    2ca8:	18 e0       	ldi	r17, 0x08	; 8
    2caa:	81 e4       	ldi	r24, 0x41	; 65
    2cac:	63 e0       	ldi	r22, 0x03	; 3
    2cae:	0e 94 e4 01 	call	0x3c8	; 0x3c8 <EF_S8_DIO_ClearPin>
    2cb2:	81 e4       	ldi	r24, 0x41	; 65
    2cb4:	65 e0       	ldi	r22, 0x05	; 5
    2cb6:	0e 94 9b 01 	call	0x336	; 0x336 <EF_S8_DIO_SetPin>
    2cba:	81 e4       	ldi	r24, 0x41	; 65
    2cbc:	64 e0       	ldi	r22, 0x04	; 4
    2cbe:	0e 94 9b 01 	call	0x336	; 0x336 <EF_S8_DIO_SetPin>
    2cc2:	81 e4       	ldi	r24, 0x41	; 65
    2cc4:	60 e0       	ldi	r22, 0x00	; 0
    2cc6:	0e 94 c3 02 	call	0x586	; 0x586 <EF_S8_DIO_CheckPin>
    2cca:	88 23       	and	r24, r24
    2ccc:	11 f4       	brne	.+4      	; 0x2cd2 <EF_u8_KeyPad_Scan+0xbc>
    2cce:	13 e0       	ldi	r17, 0x03	; 3
    2cd0:	0f c0       	rjmp	.+30     	; 0x2cf0 <EF_u8_KeyPad_Scan+0xda>
    2cd2:	81 e4       	ldi	r24, 0x41	; 65
    2cd4:	61 e0       	ldi	r22, 0x01	; 1
    2cd6:	0e 94 c3 02 	call	0x586	; 0x586 <EF_S8_DIO_CheckPin>
    2cda:	88 23       	and	r24, r24
    2cdc:	11 f4       	brne	.+4      	; 0x2ce2 <EF_u8_KeyPad_Scan+0xcc>
    2cde:	16 e0       	ldi	r17, 0x06	; 6
    2ce0:	07 c0       	rjmp	.+14     	; 0x2cf0 <EF_u8_KeyPad_Scan+0xda>
    2ce2:	81 e4       	ldi	r24, 0x41	; 65
    2ce4:	62 e0       	ldi	r22, 0x02	; 2
    2ce6:	0e 94 c3 02 	call	0x586	; 0x586 <EF_S8_DIO_CheckPin>
    2cea:	88 23       	and	r24, r24
    2cec:	09 f4       	brne	.+2      	; 0x2cf0 <EF_u8_KeyPad_Scan+0xda>
    2cee:	19 e0       	ldi	r17, 0x09	; 9
    2cf0:	81 2f       	mov	r24, r17
    2cf2:	1f 91       	pop	r17
    2cf4:	08 95       	ret

00002cf6 <EF_void_KeyPad_Init>:
    2cf6:	81 e4       	ldi	r24, 0x41	; 65
    2cf8:	60 e0       	ldi	r22, 0x00	; 0
    2cfa:	40 e0       	ldi	r20, 0x00	; 0
    2cfc:	0e 94 0a 01 	call	0x214	; 0x214 <EF_B_DIO_InitPin>
    2d00:	81 e4       	ldi	r24, 0x41	; 65
    2d02:	61 e0       	ldi	r22, 0x01	; 1
    2d04:	40 e0       	ldi	r20, 0x00	; 0
    2d06:	0e 94 0a 01 	call	0x214	; 0x214 <EF_B_DIO_InitPin>
    2d0a:	81 e4       	ldi	r24, 0x41	; 65
    2d0c:	62 e0       	ldi	r22, 0x02	; 2
    2d0e:	40 e0       	ldi	r20, 0x00	; 0
    2d10:	0e 94 0a 01 	call	0x214	; 0x214 <EF_B_DIO_InitPin>
    2d14:	81 e4       	ldi	r24, 0x41	; 65
    2d16:	65 e0       	ldi	r22, 0x05	; 5
    2d18:	41 e0       	ldi	r20, 0x01	; 1
    2d1a:	0e 94 0a 01 	call	0x214	; 0x214 <EF_B_DIO_InitPin>
    2d1e:	81 e4       	ldi	r24, 0x41	; 65
    2d20:	64 e0       	ldi	r22, 0x04	; 4
    2d22:	41 e0       	ldi	r20, 0x01	; 1
    2d24:	0e 94 0a 01 	call	0x214	; 0x214 <EF_B_DIO_InitPin>
    2d28:	81 e4       	ldi	r24, 0x41	; 65
    2d2a:	63 e0       	ldi	r22, 0x03	; 3
    2d2c:	41 e0       	ldi	r20, 0x01	; 1
    2d2e:	0e 94 0a 01 	call	0x214	; 0x214 <EF_B_DIO_InitPin>
    2d32:	81 e4       	ldi	r24, 0x41	; 65
    2d34:	60 e0       	ldi	r22, 0x00	; 0
    2d36:	0e 94 9b 01 	call	0x336	; 0x336 <EF_S8_DIO_SetPin>
    2d3a:	81 e4       	ldi	r24, 0x41	; 65
    2d3c:	61 e0       	ldi	r22, 0x01	; 1
    2d3e:	0e 94 9b 01 	call	0x336	; 0x336 <EF_S8_DIO_SetPin>
    2d42:	81 e4       	ldi	r24, 0x41	; 65
    2d44:	62 e0       	ldi	r22, 0x02	; 2
    2d46:	0e 94 9b 01 	call	0x336	; 0x336 <EF_S8_DIO_SetPin>
    2d4a:	08 95       	ret

00002d4c <EF_void_LCD_send_command>:
    2d4c:	ae 98       	cbi	0x15, 6	; 21
    2d4e:	c7 98       	cbi	0x18, 7	; 24
    2d50:	c6 98       	cbi	0x18, 6	; 24
    2d52:	c5 98       	cbi	0x18, 5	; 24
    2d54:	c4 98       	cbi	0x18, 4	; 24
    2d56:	87 fd       	sbrc	r24, 7
    2d58:	c7 9a       	sbi	0x18, 7	; 24
    2d5a:	86 fd       	sbrc	r24, 6
    2d5c:	c6 9a       	sbi	0x18, 6	; 24
    2d5e:	85 fd       	sbrc	r24, 5
    2d60:	c5 9a       	sbi	0x18, 5	; 24
    2d62:	84 fd       	sbrc	r24, 4
    2d64:	c4 9a       	sbi	0x18, 4	; 24
    2d66:	af 9a       	sbi	0x15, 7	; 21
    2d68:	95 e0       	ldi	r25, 0x05	; 5
    2d6a:	9a 95       	dec	r25
    2d6c:	f1 f7       	brne	.-4      	; 0x2d6a <EF_void_LCD_send_command+0x1e>
    2d6e:	af 98       	cbi	0x15, 7	; 21
    2d70:	c7 98       	cbi	0x18, 7	; 24
    2d72:	c6 98       	cbi	0x18, 6	; 24
    2d74:	c5 98       	cbi	0x18, 5	; 24
    2d76:	c4 98       	cbi	0x18, 4	; 24
    2d78:	83 fd       	sbrc	r24, 3
    2d7a:	c7 9a       	sbi	0x18, 7	; 24
    2d7c:	82 fd       	sbrc	r24, 2
    2d7e:	c6 9a       	sbi	0x18, 6	; 24
    2d80:	81 fd       	sbrc	r24, 1
    2d82:	c5 9a       	sbi	0x18, 5	; 24
    2d84:	80 fd       	sbrc	r24, 0
    2d86:	c4 9a       	sbi	0x18, 4	; 24
    2d88:	af 9a       	sbi	0x15, 7	; 21
    2d8a:	85 e0       	ldi	r24, 0x05	; 5
    2d8c:	8a 95       	dec	r24
    2d8e:	f1 f7       	brne	.-4      	; 0x2d8c <EF_void_LCD_send_command+0x40>
    2d90:	af 98       	cbi	0x15, 7	; 21
    2d92:	88 e5       	ldi	r24, 0x58	; 88
    2d94:	92 e0       	ldi	r25, 0x02	; 2
    2d96:	01 97       	sbiw	r24, 0x01	; 1
    2d98:	f1 f7       	brne	.-4      	; 0x2d96 <EF_void_LCD_send_command+0x4a>
    2d9a:	08 95       	ret

00002d9c <EF_void_LCD_send_data>:
    2d9c:	ae 9a       	sbi	0x15, 6	; 21
    2d9e:	c7 98       	cbi	0x18, 7	; 24
    2da0:	c6 98       	cbi	0x18, 6	; 24
    2da2:	c5 98       	cbi	0x18, 5	; 24
    2da4:	c4 98       	cbi	0x18, 4	; 24
    2da6:	87 fd       	sbrc	r24, 7
    2da8:	c7 9a       	sbi	0x18, 7	; 24
    2daa:	86 fd       	sbrc	r24, 6
    2dac:	c6 9a       	sbi	0x18, 6	; 24
    2dae:	85 fd       	sbrc	r24, 5
    2db0:	c5 9a       	sbi	0x18, 5	; 24
    2db2:	84 fd       	sbrc	r24, 4
    2db4:	c4 9a       	sbi	0x18, 4	; 24
    2db6:	af 9a       	sbi	0x15, 7	; 21
    2db8:	95 e0       	ldi	r25, 0x05	; 5
    2dba:	9a 95       	dec	r25
    2dbc:	f1 f7       	brne	.-4      	; 0x2dba <EF_void_LCD_send_data+0x1e>
    2dbe:	af 98       	cbi	0x15, 7	; 21
    2dc0:	c7 98       	cbi	0x18, 7	; 24
    2dc2:	c6 98       	cbi	0x18, 6	; 24
    2dc4:	c5 98       	cbi	0x18, 5	; 24
    2dc6:	c4 98       	cbi	0x18, 4	; 24
    2dc8:	83 fd       	sbrc	r24, 3
    2dca:	c7 9a       	sbi	0x18, 7	; 24
    2dcc:	82 fd       	sbrc	r24, 2
    2dce:	c6 9a       	sbi	0x18, 6	; 24
    2dd0:	81 fd       	sbrc	r24, 1
    2dd2:	c5 9a       	sbi	0x18, 5	; 24
    2dd4:	80 fd       	sbrc	r24, 0
    2dd6:	c4 9a       	sbi	0x18, 4	; 24
    2dd8:	af 9a       	sbi	0x15, 7	; 21
    2dda:	85 e0       	ldi	r24, 0x05	; 5
    2ddc:	8a 95       	dec	r24
    2dde:	f1 f7       	brne	.-4      	; 0x2ddc <EF_void_LCD_send_data+0x40>
    2de0:	af 98       	cbi	0x15, 7	; 21
    2de2:	88 e5       	ldi	r24, 0x58	; 88
    2de4:	92 e0       	ldi	r25, 0x02	; 2
    2de6:	01 97       	sbiw	r24, 0x01	; 1
    2de8:	f1 f7       	brne	.-4      	; 0x2de6 <EF_void_LCD_send_data+0x4a>
    2dea:	08 95       	ret

00002dec <EF_void_LCD_goto>:
    2dec:	df 93       	push	r29
    2dee:	cf 93       	push	r28
    2df0:	00 d0       	rcall	.+0      	; 0x2df2 <EF_void_LCD_goto+0x6>
    2df2:	00 d0       	rcall	.+0      	; 0x2df4 <EF_void_LCD_goto+0x8>
    2df4:	cd b7       	in	r28, 0x3d	; 61
    2df6:	de b7       	in	r29, 0x3e	; 62
    2df8:	90 e8       	ldi	r25, 0x80	; 128
    2dfa:	99 83       	std	Y+1, r25	; 0x01
    2dfc:	90 ec       	ldi	r25, 0xC0	; 192
    2dfe:	9a 83       	std	Y+2, r25	; 0x02
    2e00:	94 e9       	ldi	r25, 0x94	; 148
    2e02:	9b 83       	std	Y+3, r25	; 0x03
    2e04:	94 ed       	ldi	r25, 0xD4	; 212
    2e06:	9c 83       	std	Y+4, r25	; 0x04
    2e08:	61 50       	subi	r22, 0x01	; 1
    2e0a:	fe 01       	movw	r30, r28
    2e0c:	e8 0f       	add	r30, r24
    2e0e:	f1 1d       	adc	r31, r1
    2e10:	80 81       	ld	r24, Z
    2e12:	86 0f       	add	r24, r22
    2e14:	0e 94 a6 16 	call	0x2d4c	; 0x2d4c <EF_void_LCD_send_command>
    2e18:	80 e4       	ldi	r24, 0x40	; 64
    2e1a:	9c e9       	ldi	r25, 0x9C	; 156
    2e1c:	01 97       	sbiw	r24, 0x01	; 1
    2e1e:	f1 f7       	brne	.-4      	; 0x2e1c <EF_void_LCD_goto+0x30>
    2e20:	0f 90       	pop	r0
    2e22:	0f 90       	pop	r0
    2e24:	0f 90       	pop	r0
    2e26:	0f 90       	pop	r0
    2e28:	cf 91       	pop	r28
    2e2a:	df 91       	pop	r29
    2e2c:	08 95       	ret

00002e2e <EF_void_LCD_print>:
    2e2e:	1f 93       	push	r17
    2e30:	cf 93       	push	r28
    2e32:	df 93       	push	r29
    2e34:	ec 01       	movw	r28, r24
    2e36:	10 e0       	ldi	r17, 0x00	; 0
    2e38:	03 c0       	rjmp	.+6      	; 0x2e40 <EF_void_LCD_print+0x12>
    2e3a:	0e 94 ce 16 	call	0x2d9c	; 0x2d9c <EF_void_LCD_send_data>
    2e3e:	1f 5f       	subi	r17, 0xFF	; 255
    2e40:	fe 01       	movw	r30, r28
    2e42:	e1 0f       	add	r30, r17
    2e44:	f1 1d       	adc	r31, r1
    2e46:	80 81       	ld	r24, Z
    2e48:	88 23       	and	r24, r24
    2e4a:	b9 f7       	brne	.-18     	; 0x2e3a <EF_void_LCD_print+0xc>
    2e4c:	df 91       	pop	r29
    2e4e:	cf 91       	pop	r28
    2e50:	1f 91       	pop	r17
    2e52:	08 95       	ret

00002e54 <EF_void_LCD_print_ByLength>:
    2e54:	0f 93       	push	r16
    2e56:	1f 93       	push	r17
    2e58:	cf 93       	push	r28
    2e5a:	df 93       	push	r29
    2e5c:	06 2f       	mov	r16, r22
    2e5e:	ec 01       	movw	r28, r24
    2e60:	10 e0       	ldi	r17, 0x00	; 0
    2e62:	04 c0       	rjmp	.+8      	; 0x2e6c <EF_void_LCD_print_ByLength+0x18>
    2e64:	89 91       	ld	r24, Y+
    2e66:	0e 94 ce 16 	call	0x2d9c	; 0x2d9c <EF_void_LCD_send_data>
    2e6a:	1f 5f       	subi	r17, 0xFF	; 255
    2e6c:	10 17       	cp	r17, r16
    2e6e:	d0 f3       	brcs	.-12     	; 0x2e64 <EF_void_LCD_print_ByLength+0x10>
    2e70:	df 91       	pop	r29
    2e72:	cf 91       	pop	r28
    2e74:	1f 91       	pop	r17
    2e76:	0f 91       	pop	r16
    2e78:	08 95       	ret

00002e7a <EF_void_LCD_Clear_Screen>:
    2e7a:	81 e0       	ldi	r24, 0x01	; 1
    2e7c:	0e 94 a6 16 	call	0x2d4c	; 0x2d4c <EF_void_LCD_send_command>
    2e80:	85 e0       	ldi	r24, 0x05	; 5
    2e82:	8a 95       	dec	r24
    2e84:	f1 f7       	brne	.-4      	; 0x2e82 <EF_void_LCD_Clear_Screen+0x8>
    2e86:	80 e2       	ldi	r24, 0x20	; 32
    2e88:	9e e4       	ldi	r25, 0x4E	; 78
    2e8a:	01 97       	sbiw	r24, 0x01	; 1
    2e8c:	f1 f7       	brne	.-4      	; 0x2e8a <EF_void_LCD_Clear_Screen+0x10>
    2e8e:	08 95       	ret

00002e90 <EF_void_uploadCustomChar>:
    2e90:	0f 93       	push	r16
    2e92:	1f 93       	push	r17
    2e94:	cf 93       	push	r28
    2e96:	df 93       	push	r29
    2e98:	8b 01       	movw	r16, r22
    2e9a:	88 30       	cpi	r24, 0x08	; 8
    2e9c:	90 f4       	brcc	.+36     	; 0x2ec2 <EF_void_uploadCustomChar+0x32>
    2e9e:	88 0f       	add	r24, r24
    2ea0:	88 0f       	add	r24, r24
    2ea2:	88 0f       	add	r24, r24
    2ea4:	80 5c       	subi	r24, 0xC0	; 192
    2ea6:	0e 94 a6 16 	call	0x2d4c	; 0x2d4c <EF_void_LCD_send_command>
    2eaa:	c0 e0       	ldi	r28, 0x00	; 0
    2eac:	d0 e0       	ldi	r29, 0x00	; 0
    2eae:	f8 01       	movw	r30, r16
    2eb0:	ec 0f       	add	r30, r28
    2eb2:	fd 1f       	adc	r31, r29
    2eb4:	80 81       	ld	r24, Z
    2eb6:	0e 94 ce 16 	call	0x2d9c	; 0x2d9c <EF_void_LCD_send_data>
    2eba:	21 96       	adiw	r28, 0x01	; 1
    2ebc:	c8 30       	cpi	r28, 0x08	; 8
    2ebe:	d1 05       	cpc	r29, r1
    2ec0:	b1 f7       	brne	.-20     	; 0x2eae <EF_void_uploadCustomChar+0x1e>
    2ec2:	df 91       	pop	r29
    2ec4:	cf 91       	pop	r28
    2ec6:	1f 91       	pop	r17
    2ec8:	0f 91       	pop	r16
    2eca:	08 95       	ret

00002ecc <EF_void_LCD_HextoASCII>:
    2ecc:	cf 93       	push	r28
    2ece:	df 93       	push	r29
    2ed0:	ec 01       	movw	r28, r24
    2ed2:	88 81       	ld	r24, Y
    2ed4:	82 95       	swap	r24
    2ed6:	8f 70       	andi	r24, 0x0F	; 15
    2ed8:	8a 30       	cpi	r24, 0x0A	; 10
    2eda:	10 f0       	brcs	.+4      	; 0x2ee0 <EF_void_LCD_HextoASCII+0x14>
    2edc:	89 5c       	subi	r24, 0xC9	; 201
    2ede:	01 c0       	rjmp	.+2      	; 0x2ee2 <EF_void_LCD_HextoASCII+0x16>
    2ee0:	80 5d       	subi	r24, 0xD0	; 208
    2ee2:	0e 94 ce 16 	call	0x2d9c	; 0x2d9c <EF_void_LCD_send_data>
    2ee6:	88 81       	ld	r24, Y
    2ee8:	8f 70       	andi	r24, 0x0F	; 15
    2eea:	8a 30       	cpi	r24, 0x0A	; 10
    2eec:	10 f0       	brcs	.+4      	; 0x2ef2 <EF_void_LCD_HextoASCII+0x26>
    2eee:	89 5c       	subi	r24, 0xC9	; 201
    2ef0:	01 c0       	rjmp	.+2      	; 0x2ef4 <EF_void_LCD_HextoASCII+0x28>
    2ef2:	80 5d       	subi	r24, 0xD0	; 208
    2ef4:	0e 94 ce 16 	call	0x2d9c	; 0x2d9c <EF_void_LCD_send_data>
    2ef8:	df 91       	pop	r29
    2efa:	cf 91       	pop	r28
    2efc:	08 95       	ret

00002efe <LCD_4BIT_Write_Init>:
    2efe:	88 bb       	out	0x18, r24	; 24
    2f00:	ae 98       	cbi	0x15, 6	; 21
    2f02:	af 9a       	sbi	0x15, 7	; 21
    2f04:	80 ed       	ldi	r24, 0xD0	; 208
    2f06:	97 e0       	ldi	r25, 0x07	; 7
    2f08:	fc 01       	movw	r30, r24
    2f0a:	31 97       	sbiw	r30, 0x01	; 1
    2f0c:	f1 f7       	brne	.-4      	; 0x2f0a <LCD_4BIT_Write_Init+0xc>
    2f0e:	af 98       	cbi	0x15, 7	; 21
    2f10:	01 97       	sbiw	r24, 0x01	; 1
    2f12:	f1 f7       	brne	.-4      	; 0x2f10 <LCD_4BIT_Write_Init+0x12>
    2f14:	08 95       	ret

00002f16 <EF_void_LCD_init>:
    2f16:	0f 93       	push	r16
    2f18:	1f 93       	push	r17
    2f1a:	a7 9a       	sbi	0x14, 7	; 20
    2f1c:	a6 9a       	sbi	0x14, 6	; 20
    2f1e:	87 b3       	in	r24, 0x17	; 23
    2f20:	80 6f       	ori	r24, 0xF0	; 240
    2f22:	87 bb       	out	0x17, r24	; 23
    2f24:	88 b3       	in	r24, 0x18	; 24
    2f26:	88 bb       	out	0x18, r24	; 24
    2f28:	80 e3       	ldi	r24, 0x30	; 48
    2f2a:	0e 94 7f 17 	call	0x2efe	; 0x2efe <LCD_4BIT_Write_Init>
    2f2e:	00 e2       	ldi	r16, 0x20	; 32
    2f30:	1e e4       	ldi	r17, 0x4E	; 78
    2f32:	c8 01       	movw	r24, r16
    2f34:	01 97       	sbiw	r24, 0x01	; 1
    2f36:	f1 f7       	brne	.-4      	; 0x2f34 <EF_void_LCD_init+0x1e>
    2f38:	80 e3       	ldi	r24, 0x30	; 48
    2f3a:	0e 94 7f 17 	call	0x2efe	; 0x2efe <LCD_4BIT_Write_Init>
    2f3e:	c8 01       	movw	r24, r16
    2f40:	01 97       	sbiw	r24, 0x01	; 1
    2f42:	f1 f7       	brne	.-4      	; 0x2f40 <EF_void_LCD_init+0x2a>
    2f44:	80 e3       	ldi	r24, 0x30	; 48
    2f46:	0e 94 7f 17 	call	0x2efe	; 0x2efe <LCD_4BIT_Write_Init>
    2f4a:	c8 01       	movw	r24, r16
    2f4c:	01 97       	sbiw	r24, 0x01	; 1
    2f4e:	f1 f7       	brne	.-4      	; 0x2f4c <EF_void_LCD_init+0x36>
    2f50:	80 e2       	ldi	r24, 0x20	; 32
    2f52:	0e 94 7f 17 	call	0x2efe	; 0x2efe <LCD_4BIT_Write_Init>
    2f56:	c8 01       	movw	r24, r16
    2f58:	01 97       	sbiw	r24, 0x01	; 1
    2f5a:	f1 f7       	brne	.-4      	; 0x2f58 <EF_void_LCD_init+0x42>
    2f5c:	c8 01       	movw	r24, r16
    2f5e:	01 97       	sbiw	r24, 0x01	; 1
    2f60:	f1 f7       	brne	.-4      	; 0x2f5e <EF_void_LCD_init+0x48>
    2f62:	88 e2       	ldi	r24, 0x28	; 40
    2f64:	0e 94 a6 16 	call	0x2d4c	; 0x2d4c <EF_void_LCD_send_command>
    2f68:	8c e0       	ldi	r24, 0x0C	; 12
    2f6a:	0e 94 a6 16 	call	0x2d4c	; 0x2d4c <EF_void_LCD_send_command>
    2f6e:	86 e0       	ldi	r24, 0x06	; 6
    2f70:	0e 94 a6 16 	call	0x2d4c	; 0x2d4c <EF_void_LCD_send_command>
    2f74:	80 e8       	ldi	r24, 0x80	; 128
    2f76:	0e 94 a6 16 	call	0x2d4c	; 0x2d4c <EF_void_LCD_send_command>
    2f7a:	80 e4       	ldi	r24, 0x40	; 64
    2f7c:	9c e9       	ldi	r25, 0x9C	; 156
    2f7e:	01 97       	sbiw	r24, 0x01	; 1
    2f80:	f1 f7       	brne	.-4      	; 0x2f7e <EF_void_LCD_init+0x68>
    2f82:	1f 91       	pop	r17
    2f84:	0f 91       	pop	r16
    2f86:	08 95       	ret

00002f88 <EF_void_LCD_Newline>:
    2f88:	80 ec       	ldi	r24, 0xC0	; 192
    2f8a:	0e 94 a6 16 	call	0x2d4c	; 0x2d4c <EF_void_LCD_send_command>
    2f8e:	80 e4       	ldi	r24, 0x40	; 64
    2f90:	9c e9       	ldi	r25, 0x9C	; 156
    2f92:	01 97       	sbiw	r24, 0x01	; 1
    2f94:	f1 f7       	brne	.-4      	; 0x2f92 <EF_void_LCD_Newline+0xa>
    2f96:	08 95       	ret

00002f98 <EF_void_LCD_print_NUM>:
    2f98:	bf 92       	push	r11
    2f9a:	cf 92       	push	r12
    2f9c:	df 92       	push	r13
    2f9e:	ef 92       	push	r14
    2fa0:	ff 92       	push	r15
    2fa2:	0f 93       	push	r16
    2fa4:	df 93       	push	r29
    2fa6:	cf 93       	push	r28
    2fa8:	cd b7       	in	r28, 0x3d	; 61
    2faa:	de b7       	in	r29, 0x3e	; 62
    2fac:	28 97       	sbiw	r28, 0x08	; 8
    2fae:	0f b6       	in	r0, 0x3f	; 63
    2fb0:	f8 94       	cli
    2fb2:	de bf       	out	0x3e, r29	; 62
    2fb4:	0f be       	out	0x3f, r0	; 63
    2fb6:	cd bf       	out	0x3d, r28	; 61
    2fb8:	b6 2e       	mov	r11, r22
    2fba:	9e 01       	movw	r18, r28
    2fbc:	2f 5f       	subi	r18, 0xFF	; 255
    2fbe:	3f 4f       	sbci	r19, 0xFF	; 255
    2fc0:	38 87       	std	Y+8, r19	; 0x08
    2fc2:	2f 83       	std	Y+7, r18	; 0x07
    2fc4:	26 e0       	ldi	r18, 0x06	; 6
    2fc6:	ef 81       	ldd	r30, Y+7	; 0x07
    2fc8:	f8 85       	ldd	r31, Y+8	; 0x08
    2fca:	11 92       	st	Z+, r1
    2fcc:	2a 95       	dec	r18
    2fce:	e9 f7       	brne	.-6      	; 0x2fca <EF_void_LCD_print_NUM+0x32>
    2fd0:	be 01       	movw	r22, r28
    2fd2:	6f 5f       	subi	r22, 0xFF	; 255
    2fd4:	7f 4f       	sbci	r23, 0xFF	; 255
    2fd6:	4a e0       	ldi	r20, 0x0A	; 10
    2fd8:	50 e0       	ldi	r21, 0x00	; 0
    2fda:	0e 94 04 1b 	call	0x3608	; 0x3608 <itoa>
    2fde:	00 e0       	ldi	r16, 0x00	; 0
    2fe0:	6e 01       	movw	r12, r28
    2fe2:	08 94       	sec
    2fe4:	c1 1c       	adc	r12, r1
    2fe6:	d1 1c       	adc	r13, r1
    2fe8:	09 c0       	rjmp	.+18     	; 0x2ffc <EF_void_LCD_print_NUM+0x64>
    2fea:	0f 5f       	subi	r16, 0xFF	; 255
    2fec:	8b 2d       	mov	r24, r11
    2fee:	60 2f       	mov	r22, r16
    2ff0:	0e 94 f6 16 	call	0x2dec	; 0x2dec <EF_void_LCD_goto>
    2ff4:	f7 01       	movw	r30, r14
    2ff6:	80 81       	ld	r24, Z
    2ff8:	0e 94 ce 16 	call	0x2d9c	; 0x2d9c <EF_void_LCD_send_data>
    2ffc:	76 01       	movw	r14, r12
    2ffe:	e0 0e       	add	r14, r16
    3000:	f1 1c       	adc	r15, r1
    3002:	f7 01       	movw	r30, r14
    3004:	80 81       	ld	r24, Z
    3006:	88 23       	and	r24, r24
    3008:	81 f7       	brne	.-32     	; 0x2fea <EF_void_LCD_print_NUM+0x52>
    300a:	28 96       	adiw	r28, 0x08	; 8
    300c:	0f b6       	in	r0, 0x3f	; 63
    300e:	f8 94       	cli
    3010:	de bf       	out	0x3e, r29	; 62
    3012:	0f be       	out	0x3f, r0	; 63
    3014:	cd bf       	out	0x3d, r28	; 61
    3016:	cf 91       	pop	r28
    3018:	df 91       	pop	r29
    301a:	0f 91       	pop	r16
    301c:	ff 90       	pop	r15
    301e:	ef 90       	pop	r14
    3020:	df 90       	pop	r13
    3022:	cf 90       	pop	r12
    3024:	bf 90       	pop	r11
    3026:	08 95       	ret

00003028 <main>:
    3028:	0e 94 b2 12 	call	0x2564	; 0x2564 <EF_KIT_Inti>
    302c:	0e 94 b0 11 	call	0x2360	; 0x2360 <EF_Green_Kit_Leds_Relay_test>
    3030:	0e 94 3b 11 	call	0x2276	; 0x2276 <EF_Green_Kit_Buzzer_test>
    3034:	0e 94 2d 10 	call	0x205a	; 0x205a <EF_Green_Kit_7Seg_Test>
    3038:	0e 94 a2 0e 	call	0x1d44	; 0x1d44 <EF_Green_Kit_ADC_Test>
    303c:	0e 94 fa 0a 	call	0x15f4	; 0x15f4 <EF_Green_Kit_KeyPad_test>
    3040:	0e 94 06 0d 	call	0x1a0c	; 0x1a0c <EF_Green_Kit_DS1307_Test>
    3044:	0e 94 93 0b 	call	0x1726	; 0x1726 <EF_Green_Kit_EEPROM_24C16_Test>
    3048:	ff cf       	rjmp	.-2      	; 0x3048 <main+0x20>

0000304a <__subsf3>:
    304a:	50 58       	subi	r21, 0x80	; 128

0000304c <__addsf3>:
    304c:	bb 27       	eor	r27, r27
    304e:	aa 27       	eor	r26, r26
    3050:	0e d0       	rcall	.+28     	; 0x306e <__addsf3x>
    3052:	48 c1       	rjmp	.+656    	; 0x32e4 <__fp_round>
    3054:	39 d1       	rcall	.+626    	; 0x32c8 <__fp_pscA>
    3056:	30 f0       	brcs	.+12     	; 0x3064 <__addsf3+0x18>
    3058:	3e d1       	rcall	.+636    	; 0x32d6 <__fp_pscB>
    305a:	20 f0       	brcs	.+8      	; 0x3064 <__addsf3+0x18>
    305c:	31 f4       	brne	.+12     	; 0x306a <__addsf3+0x1e>
    305e:	9f 3f       	cpi	r25, 0xFF	; 255
    3060:	11 f4       	brne	.+4      	; 0x3066 <__addsf3+0x1a>
    3062:	1e f4       	brtc	.+6      	; 0x306a <__addsf3+0x1e>
    3064:	2e c1       	rjmp	.+604    	; 0x32c2 <__fp_nan>
    3066:	0e f4       	brtc	.+2      	; 0x306a <__addsf3+0x1e>
    3068:	e0 95       	com	r30
    306a:	e7 fb       	bst	r30, 7
    306c:	24 c1       	rjmp	.+584    	; 0x32b6 <__fp_inf>

0000306e <__addsf3x>:
    306e:	e9 2f       	mov	r30, r25
    3070:	4a d1       	rcall	.+660    	; 0x3306 <__fp_split3>
    3072:	80 f3       	brcs	.-32     	; 0x3054 <__addsf3+0x8>
    3074:	ba 17       	cp	r27, r26
    3076:	62 07       	cpc	r22, r18
    3078:	73 07       	cpc	r23, r19
    307a:	84 07       	cpc	r24, r20
    307c:	95 07       	cpc	r25, r21
    307e:	18 f0       	brcs	.+6      	; 0x3086 <__addsf3x+0x18>
    3080:	71 f4       	brne	.+28     	; 0x309e <__addsf3x+0x30>
    3082:	9e f5       	brtc	.+102    	; 0x30ea <__addsf3x+0x7c>
    3084:	62 c1       	rjmp	.+708    	; 0x334a <__fp_zero>
    3086:	0e f4       	brtc	.+2      	; 0x308a <__addsf3x+0x1c>
    3088:	e0 95       	com	r30
    308a:	0b 2e       	mov	r0, r27
    308c:	ba 2f       	mov	r27, r26
    308e:	a0 2d       	mov	r26, r0
    3090:	0b 01       	movw	r0, r22
    3092:	b9 01       	movw	r22, r18
    3094:	90 01       	movw	r18, r0
    3096:	0c 01       	movw	r0, r24
    3098:	ca 01       	movw	r24, r20
    309a:	a0 01       	movw	r20, r0
    309c:	11 24       	eor	r1, r1
    309e:	ff 27       	eor	r31, r31
    30a0:	59 1b       	sub	r21, r25
    30a2:	99 f0       	breq	.+38     	; 0x30ca <__addsf3x+0x5c>
    30a4:	59 3f       	cpi	r21, 0xF9	; 249
    30a6:	50 f4       	brcc	.+20     	; 0x30bc <__addsf3x+0x4e>
    30a8:	50 3e       	cpi	r21, 0xE0	; 224
    30aa:	68 f1       	brcs	.+90     	; 0x3106 <__addsf3x+0x98>
    30ac:	1a 16       	cp	r1, r26
    30ae:	f0 40       	sbci	r31, 0x00	; 0
    30b0:	a2 2f       	mov	r26, r18
    30b2:	23 2f       	mov	r18, r19
    30b4:	34 2f       	mov	r19, r20
    30b6:	44 27       	eor	r20, r20
    30b8:	58 5f       	subi	r21, 0xF8	; 248
    30ba:	f3 cf       	rjmp	.-26     	; 0x30a2 <__addsf3x+0x34>
    30bc:	46 95       	lsr	r20
    30be:	37 95       	ror	r19
    30c0:	27 95       	ror	r18
    30c2:	a7 95       	ror	r26
    30c4:	f0 40       	sbci	r31, 0x00	; 0
    30c6:	53 95       	inc	r21
    30c8:	c9 f7       	brne	.-14     	; 0x30bc <__addsf3x+0x4e>
    30ca:	7e f4       	brtc	.+30     	; 0x30ea <__addsf3x+0x7c>
    30cc:	1f 16       	cp	r1, r31
    30ce:	ba 0b       	sbc	r27, r26
    30d0:	62 0b       	sbc	r22, r18
    30d2:	73 0b       	sbc	r23, r19
    30d4:	84 0b       	sbc	r24, r20
    30d6:	ba f0       	brmi	.+46     	; 0x3106 <__addsf3x+0x98>
    30d8:	91 50       	subi	r25, 0x01	; 1
    30da:	a1 f0       	breq	.+40     	; 0x3104 <__addsf3x+0x96>
    30dc:	ff 0f       	add	r31, r31
    30de:	bb 1f       	adc	r27, r27
    30e0:	66 1f       	adc	r22, r22
    30e2:	77 1f       	adc	r23, r23
    30e4:	88 1f       	adc	r24, r24
    30e6:	c2 f7       	brpl	.-16     	; 0x30d8 <__addsf3x+0x6a>
    30e8:	0e c0       	rjmp	.+28     	; 0x3106 <__addsf3x+0x98>
    30ea:	ba 0f       	add	r27, r26
    30ec:	62 1f       	adc	r22, r18
    30ee:	73 1f       	adc	r23, r19
    30f0:	84 1f       	adc	r24, r20
    30f2:	48 f4       	brcc	.+18     	; 0x3106 <__addsf3x+0x98>
    30f4:	87 95       	ror	r24
    30f6:	77 95       	ror	r23
    30f8:	67 95       	ror	r22
    30fa:	b7 95       	ror	r27
    30fc:	f7 95       	ror	r31
    30fe:	9e 3f       	cpi	r25, 0xFE	; 254
    3100:	08 f0       	brcs	.+2      	; 0x3104 <__addsf3x+0x96>
    3102:	b3 cf       	rjmp	.-154    	; 0x306a <__addsf3+0x1e>
    3104:	93 95       	inc	r25
    3106:	88 0f       	add	r24, r24
    3108:	08 f0       	brcs	.+2      	; 0x310c <__addsf3x+0x9e>
    310a:	99 27       	eor	r25, r25
    310c:	ee 0f       	add	r30, r30
    310e:	97 95       	ror	r25
    3110:	87 95       	ror	r24
    3112:	08 95       	ret

00003114 <__divsf3>:
    3114:	0c d0       	rcall	.+24     	; 0x312e <__divsf3x>
    3116:	e6 c0       	rjmp	.+460    	; 0x32e4 <__fp_round>
    3118:	de d0       	rcall	.+444    	; 0x32d6 <__fp_pscB>
    311a:	40 f0       	brcs	.+16     	; 0x312c <__divsf3+0x18>
    311c:	d5 d0       	rcall	.+426    	; 0x32c8 <__fp_pscA>
    311e:	30 f0       	brcs	.+12     	; 0x312c <__divsf3+0x18>
    3120:	21 f4       	brne	.+8      	; 0x312a <__divsf3+0x16>
    3122:	5f 3f       	cpi	r21, 0xFF	; 255
    3124:	19 f0       	breq	.+6      	; 0x312c <__divsf3+0x18>
    3126:	c7 c0       	rjmp	.+398    	; 0x32b6 <__fp_inf>
    3128:	51 11       	cpse	r21, r1
    312a:	10 c1       	rjmp	.+544    	; 0x334c <__fp_szero>
    312c:	ca c0       	rjmp	.+404    	; 0x32c2 <__fp_nan>

0000312e <__divsf3x>:
    312e:	eb d0       	rcall	.+470    	; 0x3306 <__fp_split3>
    3130:	98 f3       	brcs	.-26     	; 0x3118 <__divsf3+0x4>

00003132 <__divsf3_pse>:
    3132:	99 23       	and	r25, r25
    3134:	c9 f3       	breq	.-14     	; 0x3128 <__divsf3+0x14>
    3136:	55 23       	and	r21, r21
    3138:	b1 f3       	breq	.-20     	; 0x3126 <__divsf3+0x12>
    313a:	95 1b       	sub	r25, r21
    313c:	55 0b       	sbc	r21, r21
    313e:	bb 27       	eor	r27, r27
    3140:	aa 27       	eor	r26, r26
    3142:	62 17       	cp	r22, r18
    3144:	73 07       	cpc	r23, r19
    3146:	84 07       	cpc	r24, r20
    3148:	38 f0       	brcs	.+14     	; 0x3158 <__divsf3_pse+0x26>
    314a:	9f 5f       	subi	r25, 0xFF	; 255
    314c:	5f 4f       	sbci	r21, 0xFF	; 255
    314e:	22 0f       	add	r18, r18
    3150:	33 1f       	adc	r19, r19
    3152:	44 1f       	adc	r20, r20
    3154:	aa 1f       	adc	r26, r26
    3156:	a9 f3       	breq	.-22     	; 0x3142 <__divsf3_pse+0x10>
    3158:	33 d0       	rcall	.+102    	; 0x31c0 <__divsf3_pse+0x8e>
    315a:	0e 2e       	mov	r0, r30
    315c:	3a f0       	brmi	.+14     	; 0x316c <__divsf3_pse+0x3a>
    315e:	e0 e8       	ldi	r30, 0x80	; 128
    3160:	30 d0       	rcall	.+96     	; 0x31c2 <__divsf3_pse+0x90>
    3162:	91 50       	subi	r25, 0x01	; 1
    3164:	50 40       	sbci	r21, 0x00	; 0
    3166:	e6 95       	lsr	r30
    3168:	00 1c       	adc	r0, r0
    316a:	ca f7       	brpl	.-14     	; 0x315e <__divsf3_pse+0x2c>
    316c:	29 d0       	rcall	.+82     	; 0x31c0 <__divsf3_pse+0x8e>
    316e:	fe 2f       	mov	r31, r30
    3170:	27 d0       	rcall	.+78     	; 0x31c0 <__divsf3_pse+0x8e>
    3172:	66 0f       	add	r22, r22
    3174:	77 1f       	adc	r23, r23
    3176:	88 1f       	adc	r24, r24
    3178:	bb 1f       	adc	r27, r27
    317a:	26 17       	cp	r18, r22
    317c:	37 07       	cpc	r19, r23
    317e:	48 07       	cpc	r20, r24
    3180:	ab 07       	cpc	r26, r27
    3182:	b0 e8       	ldi	r27, 0x80	; 128
    3184:	09 f0       	breq	.+2      	; 0x3188 <__divsf3_pse+0x56>
    3186:	bb 0b       	sbc	r27, r27
    3188:	80 2d       	mov	r24, r0
    318a:	bf 01       	movw	r22, r30
    318c:	ff 27       	eor	r31, r31
    318e:	93 58       	subi	r25, 0x83	; 131
    3190:	5f 4f       	sbci	r21, 0xFF	; 255
    3192:	2a f0       	brmi	.+10     	; 0x319e <__divsf3_pse+0x6c>
    3194:	9e 3f       	cpi	r25, 0xFE	; 254
    3196:	51 05       	cpc	r21, r1
    3198:	68 f0       	brcs	.+26     	; 0x31b4 <__divsf3_pse+0x82>
    319a:	8d c0       	rjmp	.+282    	; 0x32b6 <__fp_inf>
    319c:	d7 c0       	rjmp	.+430    	; 0x334c <__fp_szero>
    319e:	5f 3f       	cpi	r21, 0xFF	; 255
    31a0:	ec f3       	brlt	.-6      	; 0x319c <__divsf3_pse+0x6a>
    31a2:	98 3e       	cpi	r25, 0xE8	; 232
    31a4:	dc f3       	brlt	.-10     	; 0x319c <__divsf3_pse+0x6a>
    31a6:	86 95       	lsr	r24
    31a8:	77 95       	ror	r23
    31aa:	67 95       	ror	r22
    31ac:	b7 95       	ror	r27
    31ae:	f7 95       	ror	r31
    31b0:	9f 5f       	subi	r25, 0xFF	; 255
    31b2:	c9 f7       	brne	.-14     	; 0x31a6 <__divsf3_pse+0x74>
    31b4:	88 0f       	add	r24, r24
    31b6:	91 1d       	adc	r25, r1
    31b8:	96 95       	lsr	r25
    31ba:	87 95       	ror	r24
    31bc:	97 f9       	bld	r25, 7
    31be:	08 95       	ret
    31c0:	e1 e0       	ldi	r30, 0x01	; 1
    31c2:	66 0f       	add	r22, r22
    31c4:	77 1f       	adc	r23, r23
    31c6:	88 1f       	adc	r24, r24
    31c8:	bb 1f       	adc	r27, r27
    31ca:	62 17       	cp	r22, r18
    31cc:	73 07       	cpc	r23, r19
    31ce:	84 07       	cpc	r24, r20
    31d0:	ba 07       	cpc	r27, r26
    31d2:	20 f0       	brcs	.+8      	; 0x31dc <__divsf3_pse+0xaa>
    31d4:	62 1b       	sub	r22, r18
    31d6:	73 0b       	sbc	r23, r19
    31d8:	84 0b       	sbc	r24, r20
    31da:	ba 0b       	sbc	r27, r26
    31dc:	ee 1f       	adc	r30, r30
    31de:	88 f7       	brcc	.-30     	; 0x31c2 <__divsf3_pse+0x90>
    31e0:	e0 95       	com	r30
    31e2:	08 95       	ret

000031e4 <__fixunssfsi>:
    31e4:	98 d0       	rcall	.+304    	; 0x3316 <__fp_splitA>
    31e6:	88 f0       	brcs	.+34     	; 0x320a <__fixunssfsi+0x26>
    31e8:	9f 57       	subi	r25, 0x7F	; 127
    31ea:	90 f0       	brcs	.+36     	; 0x3210 <__fixunssfsi+0x2c>
    31ec:	b9 2f       	mov	r27, r25
    31ee:	99 27       	eor	r25, r25
    31f0:	b7 51       	subi	r27, 0x17	; 23
    31f2:	a0 f0       	brcs	.+40     	; 0x321c <__fixunssfsi+0x38>
    31f4:	d1 f0       	breq	.+52     	; 0x322a <__fixunssfsi+0x46>
    31f6:	66 0f       	add	r22, r22
    31f8:	77 1f       	adc	r23, r23
    31fa:	88 1f       	adc	r24, r24
    31fc:	99 1f       	adc	r25, r25
    31fe:	1a f0       	brmi	.+6      	; 0x3206 <__fixunssfsi+0x22>
    3200:	ba 95       	dec	r27
    3202:	c9 f7       	brne	.-14     	; 0x31f6 <__fixunssfsi+0x12>
    3204:	12 c0       	rjmp	.+36     	; 0x322a <__fixunssfsi+0x46>
    3206:	b1 30       	cpi	r27, 0x01	; 1
    3208:	81 f0       	breq	.+32     	; 0x322a <__fixunssfsi+0x46>
    320a:	9f d0       	rcall	.+318    	; 0x334a <__fp_zero>
    320c:	b1 e0       	ldi	r27, 0x01	; 1
    320e:	08 95       	ret
    3210:	9c c0       	rjmp	.+312    	; 0x334a <__fp_zero>
    3212:	67 2f       	mov	r22, r23
    3214:	78 2f       	mov	r23, r24
    3216:	88 27       	eor	r24, r24
    3218:	b8 5f       	subi	r27, 0xF8	; 248
    321a:	39 f0       	breq	.+14     	; 0x322a <__fixunssfsi+0x46>
    321c:	b9 3f       	cpi	r27, 0xF9	; 249
    321e:	cc f3       	brlt	.-14     	; 0x3212 <__fixunssfsi+0x2e>
    3220:	86 95       	lsr	r24
    3222:	77 95       	ror	r23
    3224:	67 95       	ror	r22
    3226:	b3 95       	inc	r27
    3228:	d9 f7       	brne	.-10     	; 0x3220 <__fixunssfsi+0x3c>
    322a:	3e f4       	brtc	.+14     	; 0x323a <__fixunssfsi+0x56>
    322c:	90 95       	com	r25
    322e:	80 95       	com	r24
    3230:	70 95       	com	r23
    3232:	61 95       	neg	r22
    3234:	7f 4f       	sbci	r23, 0xFF	; 255
    3236:	8f 4f       	sbci	r24, 0xFF	; 255
    3238:	9f 4f       	sbci	r25, 0xFF	; 255
    323a:	08 95       	ret

0000323c <__floatunsisf>:
    323c:	e8 94       	clt
    323e:	09 c0       	rjmp	.+18     	; 0x3252 <__floatsisf+0x12>

00003240 <__floatsisf>:
    3240:	97 fb       	bst	r25, 7
    3242:	3e f4       	brtc	.+14     	; 0x3252 <__floatsisf+0x12>
    3244:	90 95       	com	r25
    3246:	80 95       	com	r24
    3248:	70 95       	com	r23
    324a:	61 95       	neg	r22
    324c:	7f 4f       	sbci	r23, 0xFF	; 255
    324e:	8f 4f       	sbci	r24, 0xFF	; 255
    3250:	9f 4f       	sbci	r25, 0xFF	; 255
    3252:	99 23       	and	r25, r25
    3254:	a9 f0       	breq	.+42     	; 0x3280 <__floatsisf+0x40>
    3256:	f9 2f       	mov	r31, r25
    3258:	96 e9       	ldi	r25, 0x96	; 150
    325a:	bb 27       	eor	r27, r27
    325c:	93 95       	inc	r25
    325e:	f6 95       	lsr	r31
    3260:	87 95       	ror	r24
    3262:	77 95       	ror	r23
    3264:	67 95       	ror	r22
    3266:	b7 95       	ror	r27
    3268:	f1 11       	cpse	r31, r1
    326a:	f8 cf       	rjmp	.-16     	; 0x325c <__floatsisf+0x1c>
    326c:	fa f4       	brpl	.+62     	; 0x32ac <__floatsisf+0x6c>
    326e:	bb 0f       	add	r27, r27
    3270:	11 f4       	brne	.+4      	; 0x3276 <__floatsisf+0x36>
    3272:	60 ff       	sbrs	r22, 0
    3274:	1b c0       	rjmp	.+54     	; 0x32ac <__floatsisf+0x6c>
    3276:	6f 5f       	subi	r22, 0xFF	; 255
    3278:	7f 4f       	sbci	r23, 0xFF	; 255
    327a:	8f 4f       	sbci	r24, 0xFF	; 255
    327c:	9f 4f       	sbci	r25, 0xFF	; 255
    327e:	16 c0       	rjmp	.+44     	; 0x32ac <__floatsisf+0x6c>
    3280:	88 23       	and	r24, r24
    3282:	11 f0       	breq	.+4      	; 0x3288 <__floatsisf+0x48>
    3284:	96 e9       	ldi	r25, 0x96	; 150
    3286:	11 c0       	rjmp	.+34     	; 0x32aa <__floatsisf+0x6a>
    3288:	77 23       	and	r23, r23
    328a:	21 f0       	breq	.+8      	; 0x3294 <__floatsisf+0x54>
    328c:	9e e8       	ldi	r25, 0x8E	; 142
    328e:	87 2f       	mov	r24, r23
    3290:	76 2f       	mov	r23, r22
    3292:	05 c0       	rjmp	.+10     	; 0x329e <__floatsisf+0x5e>
    3294:	66 23       	and	r22, r22
    3296:	71 f0       	breq	.+28     	; 0x32b4 <__floatsisf+0x74>
    3298:	96 e8       	ldi	r25, 0x86	; 134
    329a:	86 2f       	mov	r24, r22
    329c:	70 e0       	ldi	r23, 0x00	; 0
    329e:	60 e0       	ldi	r22, 0x00	; 0
    32a0:	2a f0       	brmi	.+10     	; 0x32ac <__floatsisf+0x6c>
    32a2:	9a 95       	dec	r25
    32a4:	66 0f       	add	r22, r22
    32a6:	77 1f       	adc	r23, r23
    32a8:	88 1f       	adc	r24, r24
    32aa:	da f7       	brpl	.-10     	; 0x32a2 <__floatsisf+0x62>
    32ac:	88 0f       	add	r24, r24
    32ae:	96 95       	lsr	r25
    32b0:	87 95       	ror	r24
    32b2:	97 f9       	bld	r25, 7
    32b4:	08 95       	ret

000032b6 <__fp_inf>:
    32b6:	97 f9       	bld	r25, 7
    32b8:	9f 67       	ori	r25, 0x7F	; 127
    32ba:	80 e8       	ldi	r24, 0x80	; 128
    32bc:	70 e0       	ldi	r23, 0x00	; 0
    32be:	60 e0       	ldi	r22, 0x00	; 0
    32c0:	08 95       	ret

000032c2 <__fp_nan>:
    32c2:	9f ef       	ldi	r25, 0xFF	; 255
    32c4:	80 ec       	ldi	r24, 0xC0	; 192
    32c6:	08 95       	ret

000032c8 <__fp_pscA>:
    32c8:	00 24       	eor	r0, r0
    32ca:	0a 94       	dec	r0
    32cc:	16 16       	cp	r1, r22
    32ce:	17 06       	cpc	r1, r23
    32d0:	18 06       	cpc	r1, r24
    32d2:	09 06       	cpc	r0, r25
    32d4:	08 95       	ret

000032d6 <__fp_pscB>:
    32d6:	00 24       	eor	r0, r0
    32d8:	0a 94       	dec	r0
    32da:	12 16       	cp	r1, r18
    32dc:	13 06       	cpc	r1, r19
    32de:	14 06       	cpc	r1, r20
    32e0:	05 06       	cpc	r0, r21
    32e2:	08 95       	ret

000032e4 <__fp_round>:
    32e4:	09 2e       	mov	r0, r25
    32e6:	03 94       	inc	r0
    32e8:	00 0c       	add	r0, r0
    32ea:	11 f4       	brne	.+4      	; 0x32f0 <__fp_round+0xc>
    32ec:	88 23       	and	r24, r24
    32ee:	52 f0       	brmi	.+20     	; 0x3304 <__fp_round+0x20>
    32f0:	bb 0f       	add	r27, r27
    32f2:	40 f4       	brcc	.+16     	; 0x3304 <__fp_round+0x20>
    32f4:	bf 2b       	or	r27, r31
    32f6:	11 f4       	brne	.+4      	; 0x32fc <__fp_round+0x18>
    32f8:	60 ff       	sbrs	r22, 0
    32fa:	04 c0       	rjmp	.+8      	; 0x3304 <__fp_round+0x20>
    32fc:	6f 5f       	subi	r22, 0xFF	; 255
    32fe:	7f 4f       	sbci	r23, 0xFF	; 255
    3300:	8f 4f       	sbci	r24, 0xFF	; 255
    3302:	9f 4f       	sbci	r25, 0xFF	; 255
    3304:	08 95       	ret

00003306 <__fp_split3>:
    3306:	57 fd       	sbrc	r21, 7
    3308:	90 58       	subi	r25, 0x80	; 128
    330a:	44 0f       	add	r20, r20
    330c:	55 1f       	adc	r21, r21
    330e:	59 f0       	breq	.+22     	; 0x3326 <__fp_splitA+0x10>
    3310:	5f 3f       	cpi	r21, 0xFF	; 255
    3312:	71 f0       	breq	.+28     	; 0x3330 <__fp_splitA+0x1a>
    3314:	47 95       	ror	r20

00003316 <__fp_splitA>:
    3316:	88 0f       	add	r24, r24
    3318:	97 fb       	bst	r25, 7
    331a:	99 1f       	adc	r25, r25
    331c:	61 f0       	breq	.+24     	; 0x3336 <__fp_splitA+0x20>
    331e:	9f 3f       	cpi	r25, 0xFF	; 255
    3320:	79 f0       	breq	.+30     	; 0x3340 <__fp_splitA+0x2a>
    3322:	87 95       	ror	r24
    3324:	08 95       	ret
    3326:	12 16       	cp	r1, r18
    3328:	13 06       	cpc	r1, r19
    332a:	14 06       	cpc	r1, r20
    332c:	55 1f       	adc	r21, r21
    332e:	f2 cf       	rjmp	.-28     	; 0x3314 <__fp_split3+0xe>
    3330:	46 95       	lsr	r20
    3332:	f1 df       	rcall	.-30     	; 0x3316 <__fp_splitA>
    3334:	08 c0       	rjmp	.+16     	; 0x3346 <__fp_splitA+0x30>
    3336:	16 16       	cp	r1, r22
    3338:	17 06       	cpc	r1, r23
    333a:	18 06       	cpc	r1, r24
    333c:	99 1f       	adc	r25, r25
    333e:	f1 cf       	rjmp	.-30     	; 0x3322 <__fp_splitA+0xc>
    3340:	86 95       	lsr	r24
    3342:	71 05       	cpc	r23, r1
    3344:	61 05       	cpc	r22, r1
    3346:	08 94       	sec
    3348:	08 95       	ret

0000334a <__fp_zero>:
    334a:	e8 94       	clt

0000334c <__fp_szero>:
    334c:	bb 27       	eor	r27, r27
    334e:	66 27       	eor	r22, r22
    3350:	77 27       	eor	r23, r23
    3352:	cb 01       	movw	r24, r22
    3354:	97 f9       	bld	r25, 7
    3356:	08 95       	ret

00003358 <__gesf2>:
    3358:	ab d0       	rcall	.+342    	; 0x34b0 <__fp_cmp>
    335a:	08 f4       	brcc	.+2      	; 0x335e <__gesf2+0x6>
    335c:	8f ef       	ldi	r24, 0xFF	; 255
    335e:	08 95       	ret
    3360:	0e f0       	brts	.+2      	; 0x3364 <__gesf2+0xc>
    3362:	ca c0       	rjmp	.+404    	; 0x34f8 <__fp_mpack>
    3364:	ae cf       	rjmp	.-164    	; 0x32c2 <__fp_nan>
    3366:	68 94       	set
    3368:	a6 cf       	rjmp	.-180    	; 0x32b6 <__fp_inf>

0000336a <log>:
    336a:	d5 df       	rcall	.-86     	; 0x3316 <__fp_splitA>
    336c:	c8 f3       	brcs	.-14     	; 0x3360 <__gesf2+0x8>
    336e:	99 23       	and	r25, r25
    3370:	d1 f3       	breq	.-12     	; 0x3366 <__gesf2+0xe>
    3372:	c6 f3       	brts	.-16     	; 0x3364 <__gesf2+0xc>
    3374:	df 93       	push	r29
    3376:	cf 93       	push	r28
    3378:	1f 93       	push	r17
    337a:	0f 93       	push	r16
    337c:	ff 92       	push	r15
    337e:	c9 2f       	mov	r28, r25
    3380:	dd 27       	eor	r29, r29
    3382:	88 23       	and	r24, r24
    3384:	2a f0       	brmi	.+10     	; 0x3390 <log+0x26>
    3386:	21 97       	sbiw	r28, 0x01	; 1
    3388:	66 0f       	add	r22, r22
    338a:	77 1f       	adc	r23, r23
    338c:	88 1f       	adc	r24, r24
    338e:	da f7       	brpl	.-10     	; 0x3386 <log+0x1c>
    3390:	20 e0       	ldi	r18, 0x00	; 0
    3392:	30 e0       	ldi	r19, 0x00	; 0
    3394:	40 e8       	ldi	r20, 0x80	; 128
    3396:	5f eb       	ldi	r21, 0xBF	; 191
    3398:	9f e3       	ldi	r25, 0x3F	; 63
    339a:	88 39       	cpi	r24, 0x98	; 152
    339c:	20 f0       	brcs	.+8      	; 0x33a6 <log+0x3c>
    339e:	80 3e       	cpi	r24, 0xE0	; 224
    33a0:	30 f0       	brcs	.+12     	; 0x33ae <log+0x44>
    33a2:	21 96       	adiw	r28, 0x01	; 1
    33a4:	8f 77       	andi	r24, 0x7F	; 127
    33a6:	52 de       	rcall	.-860    	; 0x304c <__addsf3>
    33a8:	e4 e5       	ldi	r30, 0x54	; 84
    33aa:	f0 e0       	ldi	r31, 0x00	; 0
    33ac:	03 c0       	rjmp	.+6      	; 0x33b4 <log+0x4a>
    33ae:	4e de       	rcall	.-868    	; 0x304c <__addsf3>
    33b0:	e1 e8       	ldi	r30, 0x81	; 129
    33b2:	f0 e0       	ldi	r31, 0x00	; 0
    33b4:	af d0       	rcall	.+350    	; 0x3514 <__fp_powser>
    33b6:	8b 01       	movw	r16, r22
    33b8:	be 01       	movw	r22, r28
    33ba:	ec 01       	movw	r28, r24
    33bc:	fb 2e       	mov	r15, r27
    33be:	6f 57       	subi	r22, 0x7F	; 127
    33c0:	71 09       	sbc	r23, r1
    33c2:	75 95       	asr	r23
    33c4:	77 1f       	adc	r23, r23
    33c6:	88 0b       	sbc	r24, r24
    33c8:	99 0b       	sbc	r25, r25
    33ca:	3a df       	rcall	.-396    	; 0x3240 <__floatsisf>
    33cc:	28 e1       	ldi	r18, 0x18	; 24
    33ce:	32 e7       	ldi	r19, 0x72	; 114
    33d0:	41 e3       	ldi	r20, 0x31	; 49
    33d2:	5f e3       	ldi	r21, 0x3F	; 63
    33d4:	16 d0       	rcall	.+44     	; 0x3402 <__mulsf3x>
    33d6:	af 2d       	mov	r26, r15
    33d8:	98 01       	movw	r18, r16
    33da:	ae 01       	movw	r20, r28
    33dc:	ff 90       	pop	r15
    33de:	0f 91       	pop	r16
    33e0:	1f 91       	pop	r17
    33e2:	cf 91       	pop	r28
    33e4:	df 91       	pop	r29
    33e6:	43 de       	rcall	.-890    	; 0x306e <__addsf3x>
    33e8:	7d cf       	rjmp	.-262    	; 0x32e4 <__fp_round>

000033ea <__mulsf3>:
    33ea:	0b d0       	rcall	.+22     	; 0x3402 <__mulsf3x>
    33ec:	7b cf       	rjmp	.-266    	; 0x32e4 <__fp_round>
    33ee:	6c df       	rcall	.-296    	; 0x32c8 <__fp_pscA>
    33f0:	28 f0       	brcs	.+10     	; 0x33fc <__mulsf3+0x12>
    33f2:	71 df       	rcall	.-286    	; 0x32d6 <__fp_pscB>
    33f4:	18 f0       	brcs	.+6      	; 0x33fc <__mulsf3+0x12>
    33f6:	95 23       	and	r25, r21
    33f8:	09 f0       	breq	.+2      	; 0x33fc <__mulsf3+0x12>
    33fa:	5d cf       	rjmp	.-326    	; 0x32b6 <__fp_inf>
    33fc:	62 cf       	rjmp	.-316    	; 0x32c2 <__fp_nan>
    33fe:	11 24       	eor	r1, r1
    3400:	a5 cf       	rjmp	.-182    	; 0x334c <__fp_szero>

00003402 <__mulsf3x>:
    3402:	81 df       	rcall	.-254    	; 0x3306 <__fp_split3>
    3404:	a0 f3       	brcs	.-24     	; 0x33ee <__mulsf3+0x4>

00003406 <__mulsf3_pse>:
    3406:	95 9f       	mul	r25, r21
    3408:	d1 f3       	breq	.-12     	; 0x33fe <__mulsf3+0x14>
    340a:	95 0f       	add	r25, r21
    340c:	50 e0       	ldi	r21, 0x00	; 0
    340e:	55 1f       	adc	r21, r21
    3410:	62 9f       	mul	r22, r18
    3412:	f0 01       	movw	r30, r0
    3414:	72 9f       	mul	r23, r18
    3416:	bb 27       	eor	r27, r27
    3418:	f0 0d       	add	r31, r0
    341a:	b1 1d       	adc	r27, r1
    341c:	63 9f       	mul	r22, r19
    341e:	aa 27       	eor	r26, r26
    3420:	f0 0d       	add	r31, r0
    3422:	b1 1d       	adc	r27, r1
    3424:	aa 1f       	adc	r26, r26
    3426:	64 9f       	mul	r22, r20
    3428:	66 27       	eor	r22, r22
    342a:	b0 0d       	add	r27, r0
    342c:	a1 1d       	adc	r26, r1
    342e:	66 1f       	adc	r22, r22
    3430:	82 9f       	mul	r24, r18
    3432:	22 27       	eor	r18, r18
    3434:	b0 0d       	add	r27, r0
    3436:	a1 1d       	adc	r26, r1
    3438:	62 1f       	adc	r22, r18
    343a:	73 9f       	mul	r23, r19
    343c:	b0 0d       	add	r27, r0
    343e:	a1 1d       	adc	r26, r1
    3440:	62 1f       	adc	r22, r18
    3442:	83 9f       	mul	r24, r19
    3444:	a0 0d       	add	r26, r0
    3446:	61 1d       	adc	r22, r1
    3448:	22 1f       	adc	r18, r18
    344a:	74 9f       	mul	r23, r20
    344c:	33 27       	eor	r19, r19
    344e:	a0 0d       	add	r26, r0
    3450:	61 1d       	adc	r22, r1
    3452:	23 1f       	adc	r18, r19
    3454:	84 9f       	mul	r24, r20
    3456:	60 0d       	add	r22, r0
    3458:	21 1d       	adc	r18, r1
    345a:	82 2f       	mov	r24, r18
    345c:	76 2f       	mov	r23, r22
    345e:	6a 2f       	mov	r22, r26
    3460:	11 24       	eor	r1, r1
    3462:	9f 57       	subi	r25, 0x7F	; 127
    3464:	50 40       	sbci	r21, 0x00	; 0
    3466:	8a f0       	brmi	.+34     	; 0x348a <__mulsf3_pse+0x84>
    3468:	e1 f0       	breq	.+56     	; 0x34a2 <__mulsf3_pse+0x9c>
    346a:	88 23       	and	r24, r24
    346c:	4a f0       	brmi	.+18     	; 0x3480 <__mulsf3_pse+0x7a>
    346e:	ee 0f       	add	r30, r30
    3470:	ff 1f       	adc	r31, r31
    3472:	bb 1f       	adc	r27, r27
    3474:	66 1f       	adc	r22, r22
    3476:	77 1f       	adc	r23, r23
    3478:	88 1f       	adc	r24, r24
    347a:	91 50       	subi	r25, 0x01	; 1
    347c:	50 40       	sbci	r21, 0x00	; 0
    347e:	a9 f7       	brne	.-22     	; 0x346a <__mulsf3_pse+0x64>
    3480:	9e 3f       	cpi	r25, 0xFE	; 254
    3482:	51 05       	cpc	r21, r1
    3484:	70 f0       	brcs	.+28     	; 0x34a2 <__mulsf3_pse+0x9c>
    3486:	17 cf       	rjmp	.-466    	; 0x32b6 <__fp_inf>
    3488:	61 cf       	rjmp	.-318    	; 0x334c <__fp_szero>
    348a:	5f 3f       	cpi	r21, 0xFF	; 255
    348c:	ec f3       	brlt	.-6      	; 0x3488 <__mulsf3_pse+0x82>
    348e:	98 3e       	cpi	r25, 0xE8	; 232
    3490:	dc f3       	brlt	.-10     	; 0x3488 <__mulsf3_pse+0x82>
    3492:	86 95       	lsr	r24
    3494:	77 95       	ror	r23
    3496:	67 95       	ror	r22
    3498:	b7 95       	ror	r27
    349a:	f7 95       	ror	r31
    349c:	e7 95       	ror	r30
    349e:	9f 5f       	subi	r25, 0xFF	; 255
    34a0:	c1 f7       	brne	.-16     	; 0x3492 <__mulsf3_pse+0x8c>
    34a2:	fe 2b       	or	r31, r30
    34a4:	88 0f       	add	r24, r24
    34a6:	91 1d       	adc	r25, r1
    34a8:	96 95       	lsr	r25
    34aa:	87 95       	ror	r24
    34ac:	97 f9       	bld	r25, 7
    34ae:	08 95       	ret

000034b0 <__fp_cmp>:
    34b0:	99 0f       	add	r25, r25
    34b2:	00 08       	sbc	r0, r0
    34b4:	55 0f       	add	r21, r21
    34b6:	aa 0b       	sbc	r26, r26
    34b8:	e0 e8       	ldi	r30, 0x80	; 128
    34ba:	fe ef       	ldi	r31, 0xFE	; 254
    34bc:	16 16       	cp	r1, r22
    34be:	17 06       	cpc	r1, r23
    34c0:	e8 07       	cpc	r30, r24
    34c2:	f9 07       	cpc	r31, r25
    34c4:	c0 f0       	brcs	.+48     	; 0x34f6 <__fp_cmp+0x46>
    34c6:	12 16       	cp	r1, r18
    34c8:	13 06       	cpc	r1, r19
    34ca:	e4 07       	cpc	r30, r20
    34cc:	f5 07       	cpc	r31, r21
    34ce:	98 f0       	brcs	.+38     	; 0x34f6 <__fp_cmp+0x46>
    34d0:	62 1b       	sub	r22, r18
    34d2:	73 0b       	sbc	r23, r19
    34d4:	84 0b       	sbc	r24, r20
    34d6:	95 0b       	sbc	r25, r21
    34d8:	39 f4       	brne	.+14     	; 0x34e8 <__fp_cmp+0x38>
    34da:	0a 26       	eor	r0, r26
    34dc:	61 f0       	breq	.+24     	; 0x34f6 <__fp_cmp+0x46>
    34de:	23 2b       	or	r18, r19
    34e0:	24 2b       	or	r18, r20
    34e2:	25 2b       	or	r18, r21
    34e4:	21 f4       	brne	.+8      	; 0x34ee <__fp_cmp+0x3e>
    34e6:	08 95       	ret
    34e8:	0a 26       	eor	r0, r26
    34ea:	09 f4       	brne	.+2      	; 0x34ee <__fp_cmp+0x3e>
    34ec:	a1 40       	sbci	r26, 0x01	; 1
    34ee:	a6 95       	lsr	r26
    34f0:	8f ef       	ldi	r24, 0xFF	; 255
    34f2:	81 1d       	adc	r24, r1
    34f4:	81 1d       	adc	r24, r1
    34f6:	08 95       	ret

000034f8 <__fp_mpack>:
    34f8:	9f 3f       	cpi	r25, 0xFF	; 255
    34fa:	31 f0       	breq	.+12     	; 0x3508 <__fp_mpack_finite+0xc>

000034fc <__fp_mpack_finite>:
    34fc:	91 50       	subi	r25, 0x01	; 1
    34fe:	20 f4       	brcc	.+8      	; 0x3508 <__fp_mpack_finite+0xc>
    3500:	87 95       	ror	r24
    3502:	77 95       	ror	r23
    3504:	67 95       	ror	r22
    3506:	b7 95       	ror	r27
    3508:	88 0f       	add	r24, r24
    350a:	91 1d       	adc	r25, r1
    350c:	96 95       	lsr	r25
    350e:	87 95       	ror	r24
    3510:	97 f9       	bld	r25, 7
    3512:	08 95       	ret

00003514 <__fp_powser>:
    3514:	df 93       	push	r29
    3516:	cf 93       	push	r28
    3518:	1f 93       	push	r17
    351a:	0f 93       	push	r16
    351c:	ff 92       	push	r15
    351e:	ef 92       	push	r14
    3520:	df 92       	push	r13
    3522:	7b 01       	movw	r14, r22
    3524:	8c 01       	movw	r16, r24
    3526:	68 94       	set
    3528:	05 c0       	rjmp	.+10     	; 0x3534 <__fp_powser+0x20>
    352a:	da 2e       	mov	r13, r26
    352c:	ef 01       	movw	r28, r30
    352e:	69 df       	rcall	.-302    	; 0x3402 <__mulsf3x>
    3530:	fe 01       	movw	r30, r28
    3532:	e8 94       	clt
    3534:	a5 91       	lpm	r26, Z+
    3536:	25 91       	lpm	r18, Z+
    3538:	35 91       	lpm	r19, Z+
    353a:	45 91       	lpm	r20, Z+
    353c:	55 91       	lpm	r21, Z+
    353e:	ae f3       	brts	.-22     	; 0x352a <__fp_powser+0x16>
    3540:	ef 01       	movw	r28, r30
    3542:	95 dd       	rcall	.-1238   	; 0x306e <__addsf3x>
    3544:	fe 01       	movw	r30, r28
    3546:	97 01       	movw	r18, r14
    3548:	a8 01       	movw	r20, r16
    354a:	da 94       	dec	r13
    354c:	79 f7       	brne	.-34     	; 0x352c <__fp_powser+0x18>
    354e:	df 90       	pop	r13
    3550:	ef 90       	pop	r14
    3552:	ff 90       	pop	r15
    3554:	0f 91       	pop	r16
    3556:	1f 91       	pop	r17
    3558:	cf 91       	pop	r28
    355a:	df 91       	pop	r29
    355c:	08 95       	ret

0000355e <__udivmodqi4>:
    355e:	99 1b       	sub	r25, r25
    3560:	79 e0       	ldi	r23, 0x09	; 9
    3562:	04 c0       	rjmp	.+8      	; 0x356c <__udivmodqi4_ep>

00003564 <__udivmodqi4_loop>:
    3564:	99 1f       	adc	r25, r25
    3566:	96 17       	cp	r25, r22
    3568:	08 f0       	brcs	.+2      	; 0x356c <__udivmodqi4_ep>
    356a:	96 1b       	sub	r25, r22

0000356c <__udivmodqi4_ep>:
    356c:	88 1f       	adc	r24, r24
    356e:	7a 95       	dec	r23
    3570:	c9 f7       	brne	.-14     	; 0x3564 <__udivmodqi4_loop>
    3572:	80 95       	com	r24
    3574:	08 95       	ret

00003576 <__udivmodhi4>:
    3576:	aa 1b       	sub	r26, r26
    3578:	bb 1b       	sub	r27, r27
    357a:	51 e1       	ldi	r21, 0x11	; 17
    357c:	07 c0       	rjmp	.+14     	; 0x358c <__udivmodhi4_ep>

0000357e <__udivmodhi4_loop>:
    357e:	aa 1f       	adc	r26, r26
    3580:	bb 1f       	adc	r27, r27
    3582:	a6 17       	cp	r26, r22
    3584:	b7 07       	cpc	r27, r23
    3586:	10 f0       	brcs	.+4      	; 0x358c <__udivmodhi4_ep>
    3588:	a6 1b       	sub	r26, r22
    358a:	b7 0b       	sbc	r27, r23

0000358c <__udivmodhi4_ep>:
    358c:	88 1f       	adc	r24, r24
    358e:	99 1f       	adc	r25, r25
    3590:	5a 95       	dec	r21
    3592:	a9 f7       	brne	.-22     	; 0x357e <__udivmodhi4_loop>
    3594:	80 95       	com	r24
    3596:	90 95       	com	r25
    3598:	bc 01       	movw	r22, r24
    359a:	cd 01       	movw	r24, r26
    359c:	08 95       	ret

0000359e <__divmodhi4>:
    359e:	97 fb       	bst	r25, 7
    35a0:	09 2e       	mov	r0, r25
    35a2:	07 26       	eor	r0, r23
    35a4:	0a d0       	rcall	.+20     	; 0x35ba <__divmodhi4_neg1>
    35a6:	77 fd       	sbrc	r23, 7
    35a8:	04 d0       	rcall	.+8      	; 0x35b2 <__divmodhi4_neg2>
    35aa:	e5 df       	rcall	.-54     	; 0x3576 <__udivmodhi4>
    35ac:	06 d0       	rcall	.+12     	; 0x35ba <__divmodhi4_neg1>
    35ae:	00 20       	and	r0, r0
    35b0:	1a f4       	brpl	.+6      	; 0x35b8 <__divmodhi4_exit>

000035b2 <__divmodhi4_neg2>:
    35b2:	70 95       	com	r23
    35b4:	61 95       	neg	r22
    35b6:	7f 4f       	sbci	r23, 0xFF	; 255

000035b8 <__divmodhi4_exit>:
    35b8:	08 95       	ret

000035ba <__divmodhi4_neg1>:
    35ba:	f6 f7       	brtc	.-4      	; 0x35b8 <__divmodhi4_exit>
    35bc:	90 95       	com	r25
    35be:	81 95       	neg	r24
    35c0:	9f 4f       	sbci	r25, 0xFF	; 255
    35c2:	08 95       	ret

000035c4 <__udivmodsi4>:
    35c4:	a1 e2       	ldi	r26, 0x21	; 33
    35c6:	1a 2e       	mov	r1, r26
    35c8:	aa 1b       	sub	r26, r26
    35ca:	bb 1b       	sub	r27, r27
    35cc:	fd 01       	movw	r30, r26
    35ce:	0d c0       	rjmp	.+26     	; 0x35ea <__udivmodsi4_ep>

000035d0 <__udivmodsi4_loop>:
    35d0:	aa 1f       	adc	r26, r26
    35d2:	bb 1f       	adc	r27, r27
    35d4:	ee 1f       	adc	r30, r30
    35d6:	ff 1f       	adc	r31, r31
    35d8:	a2 17       	cp	r26, r18
    35da:	b3 07       	cpc	r27, r19
    35dc:	e4 07       	cpc	r30, r20
    35de:	f5 07       	cpc	r31, r21
    35e0:	20 f0       	brcs	.+8      	; 0x35ea <__udivmodsi4_ep>
    35e2:	a2 1b       	sub	r26, r18
    35e4:	b3 0b       	sbc	r27, r19
    35e6:	e4 0b       	sbc	r30, r20
    35e8:	f5 0b       	sbc	r31, r21

000035ea <__udivmodsi4_ep>:
    35ea:	66 1f       	adc	r22, r22
    35ec:	77 1f       	adc	r23, r23
    35ee:	88 1f       	adc	r24, r24
    35f0:	99 1f       	adc	r25, r25
    35f2:	1a 94       	dec	r1
    35f4:	69 f7       	brne	.-38     	; 0x35d0 <__udivmodsi4_loop>
    35f6:	60 95       	com	r22
    35f8:	70 95       	com	r23
    35fa:	80 95       	com	r24
    35fc:	90 95       	com	r25
    35fe:	9b 01       	movw	r18, r22
    3600:	ac 01       	movw	r20, r24
    3602:	bd 01       	movw	r22, r26
    3604:	cf 01       	movw	r24, r30
    3606:	08 95       	ret

00003608 <itoa>:
    3608:	fb 01       	movw	r30, r22
    360a:	9f 01       	movw	r18, r30
    360c:	e8 94       	clt
    360e:	42 30       	cpi	r20, 0x02	; 2
    3610:	c4 f0       	brlt	.+48     	; 0x3642 <itoa+0x3a>
    3612:	45 32       	cpi	r20, 0x25	; 37
    3614:	b4 f4       	brge	.+44     	; 0x3642 <itoa+0x3a>
    3616:	4a 30       	cpi	r20, 0x0A	; 10
    3618:	29 f4       	brne	.+10     	; 0x3624 <itoa+0x1c>
    361a:	97 fb       	bst	r25, 7
    361c:	1e f4       	brtc	.+6      	; 0x3624 <itoa+0x1c>
    361e:	90 95       	com	r25
    3620:	81 95       	neg	r24
    3622:	9f 4f       	sbci	r25, 0xFF	; 255
    3624:	64 2f       	mov	r22, r20
    3626:	77 27       	eor	r23, r23
    3628:	0e 94 bb 1a 	call	0x3576	; 0x3576 <__udivmodhi4>
    362c:	80 5d       	subi	r24, 0xD0	; 208
    362e:	8a 33       	cpi	r24, 0x3A	; 58
    3630:	0c f0       	brlt	.+2      	; 0x3634 <itoa+0x2c>
    3632:	89 5d       	subi	r24, 0xD9	; 217
    3634:	81 93       	st	Z+, r24
    3636:	cb 01       	movw	r24, r22
    3638:	00 97       	sbiw	r24, 0x00	; 0
    363a:	a1 f7       	brne	.-24     	; 0x3624 <itoa+0x1c>
    363c:	16 f4       	brtc	.+4      	; 0x3642 <itoa+0x3a>
    363e:	5d e2       	ldi	r21, 0x2D	; 45
    3640:	51 93       	st	Z+, r21
    3642:	10 82       	st	Z, r1
    3644:	c9 01       	movw	r24, r18
    3646:	0c 94 25 1b 	jmp	0x364a	; 0x364a <strrev>

0000364a <strrev>:
    364a:	dc 01       	movw	r26, r24
    364c:	fc 01       	movw	r30, r24
    364e:	67 2f       	mov	r22, r23
    3650:	71 91       	ld	r23, Z+
    3652:	77 23       	and	r23, r23
    3654:	e1 f7       	brne	.-8      	; 0x364e <strrev+0x4>
    3656:	32 97       	sbiw	r30, 0x02	; 2
    3658:	04 c0       	rjmp	.+8      	; 0x3662 <strrev+0x18>
    365a:	7c 91       	ld	r23, X
    365c:	6d 93       	st	X+, r22
    365e:	70 83       	st	Z, r23
    3660:	62 91       	ld	r22, -Z
    3662:	ae 17       	cp	r26, r30
    3664:	bf 07       	cpc	r27, r31
    3666:	c8 f3       	brcs	.-14     	; 0x365a <strrev+0x10>
    3668:	08 95       	ret

0000366a <_exit>:
    366a:	f8 94       	cli

0000366c <__stop_program>:
    366c:	ff cf       	rjmp	.-2      	; 0x366c <__stop_program>
